
Flash_Memory_Management.elf:     file format elf32-avr

Sections:
Idx Name          Size      VMA       LMA       File off  Algn
  0 .data         00000000  00800200  00800200  0000270e  2**0
                  ALLOC, LOAD, DATA
  1 .text         00000166  00000000  00000000  00000094  2**1
                  CONTENTS, ALLOC, LOAD, READONLY, CODE
  2 .bss          0000022a  00800200  00800200  0000270e  2**0
                  ALLOC
  3 .comment      0000002f  00000000  00000000  0000270e  2**0
                  CONTENTS, READONLY
  4 .stack.descriptors.hdr 00000070  00000000  00000000  0000273d  2**0
                  CONTENTS, READONLY
  5 .debug_aranges 00000150  00000000  00000000  000027ad  2**0
                  CONTENTS, READONLY, DEBUGGING
  6 .debug_info   000029ed  00000000  00000000  000028fd  2**0
                  CONTENTS, READONLY, DEBUGGING
  7 .debug_abbrev 000010a2  00000000  00000000  000052ea  2**0
                  CONTENTS, READONLY, DEBUGGING
  8 .debug_line   0000116b  00000000  00000000  0000638c  2**0
                  CONTENTS, READONLY, DEBUGGING
  9 .debug_frame  00000300  00000000  00000000  000074f8  2**2
                  CONTENTS, READONLY, DEBUGGING
 10 .debug_str    000004a7  00000000  00000000  000077f8  2**0
                  CONTENTS, READONLY, DEBUGGING
 11 .debug_loc    00000c57  00000000  00000000  00007c9f  2**0
                  CONTENTS, READONLY, DEBUGGING
 12 .debug_ranges 00000140  00000000  00000000  000088f6  2**0
                  CONTENTS, READONLY, DEBUGGING
 13 .text         00000004  0000266c  0000266c  00002700  2**1
                  CONTENTS, ALLOC, LOAD, READONLY, CODE
 14 .note.gnu.avr.deviceinfo 00000040  00000000  00000000  00008a38  2**2
                  CONTENTS, READONLY, DEBUGGING
 15 .progmemx.data 00000011  0000033c  0000033c  000003d0  2**0
                  CONTENTS, ALLOC, LOAD, READONLY, PROGMEMX
 16 .text.main    00000042  000022e0  000022e0  00002374  2**1
                  CONTENTS, ALLOC, LOAD, READONLY, CODE
 17 .text.USART_Init 00000036  000023d6  000023d6  0000246a  2**1
                  CONTENTS, ALLOC, LOAD, READONLY, CODE
 18 .text.USART_TX_Data 0000000e  00002620  00002620  000026b4  2**1
                  CONTENTS, ALLOC, LOAD, READONLY, CODE
 19 .text.USART_Data 0000004c  000020f4  000020f4  00002188  2**1
                  CONTENTS, ALLOC, LOAD, READONLY, CODE
 20 .text.USART_RX_Data 0000000e  0000262e  0000262e  000026c2  2**1
                  CONTENTS, ALLOC, LOAD, READONLY, CODE
 21 .text.LED_Init 00000016  000025c0  000025c0  00002654  2**1
                  CONTENTS, ALLOC, LOAD, READONLY, CODE
 22 .text.LED_Red_Toggle 0000000e  0000263c  0000263c  000026d0  2**1
                  CONTENTS, ALLOC, LOAD, READONLY, CODE
 23 .text.LED_Green_Toggle 0000000e  0000264a  0000264a  000026de  2**1
                  CONTENTS, ALLOC, LOAD, READONLY, CODE
 24 .text.VOLTAGE_Translator_Init 00000026  000024a4  000024a4  00002538  2**1
                  CONTENTS, ALLOC, LOAD, READONLY, CODE
 25 .text.SLAVE_CS_Deselect 00000062  00001f30  00001f30  00001fc4  2**1
                  CONTENTS, ALLOC, LOAD, READONLY, CODE
 26 .progmemx.data 000000c9  0000025d  0000025d  000002f1  2**0
                  CONTENTS, ALLOC, LOAD, READONLY, PROGMEMX
 27 .text.UserInput 0000006c  00001df0  00001df0  00001e84  2**1
                  CONTENTS, ALLOC, LOAD, READONLY, CODE
 28 .text.ExecuteCommand 00000196  00000e0c  00000e0c  00000ea0  2**1
                  CONTENTS, ALLOC, LOAD, READONLY, CODE
 29 .text.CommandLine 0000009c  00001aa0  00001aa0  00001b34  2**1
                  CONTENTS, ALLOC, LOAD, READONLY, CODE
 30 .bss.arr_address 00000002  0080042a  0080042a  0000270e  2**0
                  ALLOC
 31 .text.CLEAR_ARR 00000044  0000218c  0000218c  00002220  2**1
                  CONTENTS, ALLOC, LOAD, READONLY, CODE
 32 .text.SPI_MASTER_Init 00000024  000024f0  000024f0  00002584  2**1
                  CONTENTS, ALLOC, LOAD, READONLY, CODE
 33 .progmemx.data 000000f7  00000166  00000166  000001fa  2**0
                  CONTENTS, ALLOC, LOAD, READONLY, PROGMEMX
 34 .text.FLASH_ID 0000009c  00001b3c  00001b3c  00001bd0  2**1
                  CONTENTS, ALLOC, LOAD, READONLY, CODE
 35 .text.FLASH_Reset 00000032  00002442  00002442  000024d6  2**1
                  CONTENTS, ALLOC, LOAD, READONLY, CODE
 36 .text.FLASH_MainArray_Address 00000060  00001ff4  00001ff4  00002088  2**1
                  CONTENTS, ALLOC, LOAD, READONLY, CODE
 37 .text.FLASH_Cache_Address 00000044  000021d0  000021d0  00002264  2**1
                  CONTENTS, ALLOC, LOAD, READONLY, CODE
 38 .text.FLASH_Status 000000a6  00001810  00001810  000018a4  2**1
                  CONTENTS, ALLOC, LOAD, READONLY, CODE
 39 .text.FLASH_Write_Enable 00000044  00002214  00002214  000022a8  2**1
                  CONTENTS, ALLOC, LOAD, READONLY, CODE
 40 .text.FLASH_Write_Disable 00000044  00002258  00002258  000022ec  2**1
                  CONTENTS, ALLOC, LOAD, READONLY, CODE
 41 .text.FLASH_Transfer_Cache 0000004c  00002140  00002140  000021d4  2**1
                  CONTENTS, ALLOC, LOAD, READONLY, CODE
 42 .text.FLASH_Write_Data 00000082  00001cf6  00001cf6  00001d8a  2**1
                  CONTENTS, ALLOC, LOAD, READONLY, CODE
 43 .text.FLASH_Transfer_MainArray 00000050  00002054  00002054  000020e8  2**1
                  CONTENTS, ALLOC, LOAD, READONLY, CODE
 44 .text.FLASH_Erase 00000050  000020a4  000020a4  00002138  2**1
                  CONTENTS, ALLOC, LOAD, READONLY, CODE
 45 .text.FLASH_Data_Storage 0000006a  00001e5c  00001e5c  00001ef0  2**1
                  CONTENTS, ALLOC, LOAD, READONLY, CODE
 46 .text.FLASH_Read 00000062  00001f92  00001f92  00002026  2**1
                  CONTENTS, ALLOC, LOAD, READONLY, CODE
 47 .text.FLASH_Para_Pg 00000078  00001d78  00001d78  00001e0c  2**1
                  CONTENTS, ALLOC, LOAD, READONLY, CODE
 48 .text.libgcc  0000000e  00002658  00002658  000026ec  2**1
                  CONTENTS, ALLOC, LOAD, READONLY, CODE
 49 .text.__dummy_fini 00000002  00002674  00002674  00002708  2**1
                  CONTENTS, ALLOC, LOAD, READONLY, CODE
 50 .text.__dummy_funcs_on_exit 00000002  00002676  00002676  0000270a  2**1
                  CONTENTS, ALLOC, LOAD, READONLY, CODE
 51 .text.__dummy_simulator_exit 00000002  00002678  00002678  0000270c  2**1
                  CONTENTS, ALLOC, LOAD, READONLY, CODE
 52 .text.exit    00000016  000025d6  000025d6  0000266a  2**1
                  CONTENTS, ALLOC, LOAD, READONLY, CODE
 53 .text.__wrap_sprintf 00000026  000024ca  000024ca  0000255e  2**1
                  CONTENTS, ALLOC, LOAD, READONLY, CODE
 54 .progmemx.data 00000007  0000034d  0000034d  000003e1  2**0
                  CONTENTS, ALLOC, LOAD, READONLY, PROGMEMX
 55 .text.__fmt_s 000000ca  00001696  00001696  0000172a  2**1
                  CONTENTS, ALLOC, LOAD, READONLY, CODE
 56 .text.__out   0000006a  00001ec6  00001ec6  00001f5a  2**1
                  CONTENTS, ALLOC, LOAD, READONLY, CODE
 57 .text.__pad   0000010e  000013dc  000013dc  00001470  2**1
                  CONTENTS, ALLOC, LOAD, READONLY, CODE
 58 .text.__dummy_fmt4 00000006  00002666  00002666  000026fa  2**1
                  CONTENTS, ALLOC, LOAD, READONLY, CODE
 59 .text.__fmt_state 000000a4  000018b6  000018b6  0000194a  2**1
                  CONTENTS, ALLOC, LOAD, READONLY, CODE
 60 .progmemx.data 00000006  00000354  00000354  000003e8  2**0
                  CONTENTS, ALLOC, LOAD, READONLY, PROGMEMX
 61 .text.__printf_core 00000832  0000035a  0000035a  000003ee  2**1
                  CONTENTS, ALLOC, LOAD, READONLY, CODE
 62 .progmemx.data.state_table 00000016  00000326  00000326  000003ba  2**0
                  CONTENTS, ALLOC, LOAD, READONLY, PROGMEMX
 63 .text.fputc   00000092  00001bd8  00001bd8  00001c6c  2**1
                  CONTENTS, ALLOC, LOAD, READONLY, CODE
 64 .text.__fmt_d 0000017e  00000fa2  00000fa2  00001036  2**1
                  CONTENTS, ALLOC, LOAD, READONLY, CODE
 65 .text.__fmt_o 000000d4  000015c2  000015c2  00001656  2**1
                  CONTENTS, ALLOC, LOAD, READONLY, CODE
 66 .text.__cvt_u 0000014a  00001292  00001292  00001326  2**1
                  CONTENTS, ALLOC, LOAD, READONLY, CODE
 67 .text.__fmt_u 000000b0  00001760  00001760  000017f4  2**1
                  CONTENTS, ALLOC, LOAD, READONLY, CODE
 68 .text.__fmt_x 00000280  00000b8c  00000b8c  00000c20  2**1
                  CONTENTS, ALLOC, LOAD, READONLY, CODE
 69 .text.__pop_float 00000040  00002322  00002322  000023b6  2**1
                  CONTENTS, ALLOC, LOAD, READONLY, CODE
 70 .text.__pop_int 00000172  00001120  00001120  000011b4  2**1
                  CONTENTS, ALLOC, LOAD, READONLY, CODE
 71 .text.__pop_ptr 000000d8  000014ea  000014ea  0000157e  2**1
                  CONTENTS, ALLOC, LOAD, READONLY, CODE
 72 .text.atoi    0000008c  00001c6a  00001c6a  00001cfe  2**1
                  CONTENTS, ALLOC, LOAD, READONLY, CODE
 73 .text.memset  00000012  000025ec  000025ec  00002680  2**1
                  CONTENTS, ALLOC, LOAD, READONLY, CODE
 74 .text.strcmp  00000044  0000229c  0000229c  00002330  2**1
                  CONTENTS, ALLOC, LOAD, READONLY, CODE
 75 .text.strlen  00000024  00002514  00002514  000025a8  2**1
                  CONTENTS, ALLOC, LOAD, READONLY, CODE
 76 .text.tolower 00000010  00002610  00002610  000026a4  2**1
                  CONTENTS, ALLOC, LOAD, READONLY, CODE
 77 .text.toupper 00000012  000025fe  000025fe  00002692  2**1
                  CONTENTS, ALLOC, LOAD, READONLY, CODE
 78 .text._Exit   00000004  00002670  00002670  00002704  2**1
                  CONTENTS, ALLOC, LOAD, READONLY, CODE
 79 .text.__vsprintf 00000018  00002590  00002590  00002624  2**1
                  CONTENTS, ALLOC, LOAD, READONLY, CODE
 80 .text.__vsnprintf 000000a4  0000195a  0000195a  000019ee  2**1
                  CONTENTS, ALLOC, LOAD, READONLY, CODE
 81 .text.__vfprintf 00000030  00002474  00002474  00002508  2**1
                  CONTENTS, ALLOC, LOAD, READONLY, CODE
 82 .text.libgcc.div 0000001c  00002558  00002558  000025ec  2**1
                  CONTENTS, ALLOC, LOAD, READONLY, CODE
 83 .text.libgcc.div 000000a2  000019fe  000019fe  00001a92  2**1
                  CONTENTS, ALLOC, LOAD, READONLY, CODE
 84 .text.libgcc  00000020  00002538  00002538  000025cc  2**1
                  CONTENTS, ALLOC, LOAD, READONLY, CODE
 85 .text.libgcc.prologue 00000038  0000239e  0000239e  00002432  2**1
                  CONTENTS, ALLOC, LOAD, READONLY, CODE
 86 .text.libgcc.prologue 00000036  0000240c  0000240c  000024a0  2**1
                  CONTENTS, ALLOC, LOAD, READONLY, CODE
 87 .text.libgcc  0000001c  00002574  00002574  00002608  2**1
                  CONTENTS, ALLOC, LOAD, READONLY, CODE
 88 .text.libgcc.builtins 0000003c  00002362  00002362  000023f6  2**1
                  CONTENTS, ALLOC, LOAD, READONLY, CODE
 89 .text.libgcc  00000018  000025a8  000025a8  0000263c  2**1
                  CONTENTS, ALLOC, LOAD, READONLY, CODE

Disassembly of section .text:

00000000 <__vectors>:
   0:	0c 94 85 00 	jmp	0x10a	; 0x10a <__ctors_end>
   4:	0c 94 36 13 	jmp	0x266c	; 0x266c <__bad_interrupt>
   8:	0c 94 36 13 	jmp	0x266c	; 0x266c <__bad_interrupt>
   c:	0c 94 36 13 	jmp	0x266c	; 0x266c <__bad_interrupt>
  10:	0c 94 36 13 	jmp	0x266c	; 0x266c <__bad_interrupt>
  14:	0c 94 36 13 	jmp	0x266c	; 0x266c <__bad_interrupt>
  18:	0c 94 36 13 	jmp	0x266c	; 0x266c <__bad_interrupt>
  1c:	0c 94 36 13 	jmp	0x266c	; 0x266c <__bad_interrupt>
  20:	0c 94 36 13 	jmp	0x266c	; 0x266c <__bad_interrupt>
  24:	0c 94 36 13 	jmp	0x266c	; 0x266c <__bad_interrupt>
  28:	0c 94 36 13 	jmp	0x266c	; 0x266c <__bad_interrupt>
  2c:	0c 94 36 13 	jmp	0x266c	; 0x266c <__bad_interrupt>
  30:	0c 94 36 13 	jmp	0x266c	; 0x266c <__bad_interrupt>
  34:	0c 94 36 13 	jmp	0x266c	; 0x266c <__bad_interrupt>
  38:	0c 94 36 13 	jmp	0x266c	; 0x266c <__bad_interrupt>
  3c:	0c 94 36 13 	jmp	0x266c	; 0x266c <__bad_interrupt>
  40:	0c 94 36 13 	jmp	0x266c	; 0x266c <__bad_interrupt>
  44:	0c 94 36 13 	jmp	0x266c	; 0x266c <__bad_interrupt>
  48:	0c 94 36 13 	jmp	0x266c	; 0x266c <__bad_interrupt>
  4c:	0c 94 36 13 	jmp	0x266c	; 0x266c <__bad_interrupt>
  50:	0c 94 36 13 	jmp	0x266c	; 0x266c <__bad_interrupt>
  54:	0c 94 36 13 	jmp	0x266c	; 0x266c <__bad_interrupt>
  58:	0c 94 36 13 	jmp	0x266c	; 0x266c <__bad_interrupt>
  5c:	0c 94 36 13 	jmp	0x266c	; 0x266c <__bad_interrupt>
  60:	0c 94 36 13 	jmp	0x266c	; 0x266c <__bad_interrupt>
  64:	0c 94 36 13 	jmp	0x266c	; 0x266c <__bad_interrupt>
  68:	0c 94 36 13 	jmp	0x266c	; 0x266c <__bad_interrupt>
  6c:	0c 94 36 13 	jmp	0x266c	; 0x266c <__bad_interrupt>
  70:	0c 94 36 13 	jmp	0x266c	; 0x266c <__bad_interrupt>
  74:	0c 94 36 13 	jmp	0x266c	; 0x266c <__bad_interrupt>
  78:	0c 94 36 13 	jmp	0x266c	; 0x266c <__bad_interrupt>
  7c:	0c 94 36 13 	jmp	0x266c	; 0x266c <__bad_interrupt>
  80:	0c 94 36 13 	jmp	0x266c	; 0x266c <__bad_interrupt>
  84:	0c 94 36 13 	jmp	0x266c	; 0x266c <__bad_interrupt>
  88:	0c 94 36 13 	jmp	0x266c	; 0x266c <__bad_interrupt>
  8c:	0c 94 36 13 	jmp	0x266c	; 0x266c <__bad_interrupt>
  90:	0c 94 36 13 	jmp	0x266c	; 0x266c <__bad_interrupt>
  94:	0c 94 36 13 	jmp	0x266c	; 0x266c <__bad_interrupt>
  98:	0c 94 36 13 	jmp	0x266c	; 0x266c <__bad_interrupt>
  9c:	0c 94 36 13 	jmp	0x266c	; 0x266c <__bad_interrupt>
  a0:	0c 94 36 13 	jmp	0x266c	; 0x266c <__bad_interrupt>
  a4:	0c 94 36 13 	jmp	0x266c	; 0x266c <__bad_interrupt>
  a8:	0c 94 36 13 	jmp	0x266c	; 0x266c <__bad_interrupt>
  ac:	0c 94 36 13 	jmp	0x266c	; 0x266c <__bad_interrupt>
  b0:	0c 94 36 13 	jmp	0x266c	; 0x266c <__bad_interrupt>
  b4:	0c 94 36 13 	jmp	0x266c	; 0x266c <__bad_interrupt>
  b8:	0c 94 36 13 	jmp	0x266c	; 0x266c <__bad_interrupt>
  bc:	0c 94 36 13 	jmp	0x266c	; 0x266c <__bad_interrupt>
  c0:	0c 94 36 13 	jmp	0x266c	; 0x266c <__bad_interrupt>
  c4:	0c 94 36 13 	jmp	0x266c	; 0x266c <__bad_interrupt>
  c8:	0c 94 36 13 	jmp	0x266c	; 0x266c <__bad_interrupt>
  cc:	0c 94 36 13 	jmp	0x266c	; 0x266c <__bad_interrupt>
  d0:	0c 94 36 13 	jmp	0x266c	; 0x266c <__bad_interrupt>
  d4:	0c 94 36 13 	jmp	0x266c	; 0x266c <__bad_interrupt>
  d8:	0c 94 36 13 	jmp	0x266c	; 0x266c <__bad_interrupt>
  dc:	0c 94 36 13 	jmp	0x266c	; 0x266c <__bad_interrupt>
  e0:	0c 94 36 13 	jmp	0x266c	; 0x266c <__bad_interrupt>

000000e4 <.dinit>:
  e4:	02 00       	.word	0x0002	; ????
  e6:	04 2c       	mov	r0, r4
  e8:	80 00       	.word	0x0080	; ????

000000ea <__trampolines_start>:
  ea:	0c 94 6b 12 	jmp	0x24d6	; 0x24d6 <_sprintf_cdnopuxX+0xc>
  ee:	0c 94 40 12 	jmp	0x2480	; 0x2480 <__vfprintf+0xc>
  f2:	0c 94 e7 0a 	jmp	0x15ce	; 0x15ce <__fmt_o+0xc>
  f6:	0c 94 b3 01 	jmp	0x366	; 0x366 <__printf_core+0xc>
  fa:	0c 94 4f 09 	jmp	0x129e	; 0x129e <__cvt_u+0xc>
  fe:	0c 94 b6 0b 	jmp	0x176c	; 0x176c <__fmt_u+0xc>
 102:	0c 94 d7 07 	jmp	0xfae	; 0xfae <__fmt_d+0xc>
 106:	0c 94 cc 05 	jmp	0xb98	; 0xb98 <__fmt_x+0xc>

0000010a <__ctors_end>:
 10a:	11 24       	eor	r1, r1
 10c:	1f be       	out	0x3f, r1	; 63
 10e:	cf ef       	ldi	r28, 0xFF	; 255
 110:	d1 e2       	ldi	r29, 0x21	; 33
 112:	de bf       	out	0x3e, r29	; 62
 114:	cd bf       	out	0x3d, r28	; 61
 116:	00 e0       	ldi	r16, 0x00	; 0
 118:	0c bf       	out	0x3c, r16	; 60

0000011a <__do_copy_data>:
 11a:	e4 ee       	ldi	r30, 0xE4	; 228
 11c:	f0 e0       	ldi	r31, 0x00	; 0
 11e:	40 e0       	ldi	r20, 0x00	; 0
 120:	19 c0       	rjmp	.+50     	; 0x154 <__do_clear_bss+0x8>
 122:	b7 91       	elpm	r27, Z+
 124:	a7 91       	elpm	r26, Z+
 126:	37 91       	elpm	r19, Z+
 128:	27 91       	elpm	r18, Z+
 12a:	07 91       	elpm	r16, Z+
 12c:	07 fd       	sbrc	r16, 7
 12e:	0e c0       	rjmp	.+28     	; 0x14c <__do_clear_bss>
 130:	97 91       	elpm	r25, Z+
 132:	87 91       	elpm	r24, Z+
 134:	ef 01       	movw	r28, r30
 136:	f9 2f       	mov	r31, r25
 138:	e8 2f       	mov	r30, r24
 13a:	0b bf       	out	0x3b, r16	; 59
 13c:	07 90       	elpm	r0, Z+
 13e:	0d 92       	st	X+, r0
 140:	a2 17       	cp	r26, r18
 142:	b3 07       	cpc	r27, r19
 144:	d9 f7       	brne	.-10     	; 0x13c <__do_copy_data+0x22>
 146:	fe 01       	movw	r30, r28
 148:	1b be       	out	0x3b, r1	; 59
 14a:	04 c0       	rjmp	.+8      	; 0x154 <__do_clear_bss+0x8>

0000014c <__do_clear_bss>:
 14c:	1d 92       	st	X+, r1
 14e:	a2 17       	cp	r26, r18
 150:	b3 07       	cpc	r27, r19
 152:	e1 f7       	brne	.-8      	; 0x14c <__do_clear_bss>
 154:	e9 3e       	cpi	r30, 0xE9	; 233
 156:	f4 07       	cpc	r31, r20
 158:	21 f7       	brne	.-56     	; 0x122 <__do_copy_data+0x8>
 15a:	0e 94 70 11 	call	0x22e0	; 0x22e0 <main>
 15e:	0c 94 eb 12 	jmp	0x25d6	; 0x25d6 <exit>

00000162 <_exit>:
 162:	f8 94       	cli

00000164 <__stop_program>:
 164:	ff cf       	rjmp	.-2      	; 0x164 <__stop_program>

Disassembly of section .text:

0000266c <__bad_interrupt>:
    266c:	0c 94 00 00 	jmp	0	; 0x0 <__TEXT_REGION_ORIGIN__>

Disassembly of section .text.main:

000022e0 <main>:

//#include "MEGA_1284P_SPI.h" //adding MEGA_1284P SPI Testing code

int main(void)
{
	LED_Init();
    22e0:	0e 94 e0 12 	call	0x25c0	; 0x25c0 <LED_Init>
	VOLTAGE_Translator_Init();
    22e4:	0e 94 52 12 	call	0x24a4	; 0x24a4 <VOLTAGE_Translator_Init>
	USART_Init();
    22e8:	0e 94 eb 11 	call	0x23d6	; 0x23d6 <USART_Init>
	SLAVE_CS_Deselect();
    22ec:	0e 94 98 0f 	call	0x1f30	; 0x1f30 <SLAVE_CS_Deselect>
	SPI_MASTER_Init();
    22f0:	0e 94 78 12 	call	0x24f0	; 0x24f0 <SPI_MASTER_Init>
	LED_Green_Toggle();
    22f4:	0e 94 25 13 	call	0x264a	; 0x264a <LED_Green_Toggle>
	//PORTA &= ~(1 << PA3); //~CS pin set low for selecting slave device
	
    while(1)
    {		
		CLEAR_ARR();
    22f8:	0e 94 c6 10 	call	0x218c	; 0x218c <CLEAR_ARR>
		USART_Data("Arrays Cleared \n");
    22fc:	6c e3       	ldi	r22, 0x3C	; 60
    22fe:	73 e0       	ldi	r23, 0x03	; 3
    2300:	80 e0       	ldi	r24, 0x00	; 0
    2302:	0e 94 7a 10 	call	0x20f4	; 0x20f4 <USART_Data>
		
		CommandLine(); //asking for user command line
    2306:	0e 94 50 0d 	call	0x1aa0	; 0x1aa0 <CommandLine>
		
		LED_Red_Toggle();
    230a:	0e 94 1e 13 	call	0x263c	; 0x263c <LED_Red_Toggle>
	#else
		//round up by default
		__ticks_dc = (uint32_t)(ceil(fabs(__tmp)));
	#endif

	__builtin_avr_delay_cycles(__ticks_dc);
    230e:	2f ef       	ldi	r18, 0xFF	; 255
    2310:	81 ee       	ldi	r24, 0xE1	; 225
    2312:	94 e0       	ldi	r25, 0x04	; 4
    2314:	21 50       	subi	r18, 0x01	; 1
    2316:	80 40       	sbci	r24, 0x00	; 0
    2318:	90 40       	sbci	r25, 0x00	; 0
    231a:	e1 f7       	brne	.-8      	; 0x2314 <main+0x34>
    231c:	00 c0       	rjmp	.+0      	; 0x231e <main+0x3e>
    231e:	00 00       	nop
    2320:	eb cf       	rjmp	.-42     	; 0x22f8 <main+0x18>

Disassembly of section .text.USART_Init:

000023d6 <USART_Init>:
	PORTH |= (1 << PH5) | (1 << PH6); //initializing GREEN_LED off (PH5); initializing RED_LED off (PH6)
}

void LED_Toggle()
{
	PORTH ^= (1 << PH5) | (1 << PH6); //toggle GREEN_LED (PH5); toggle RED_LED (PH6)
    23d6:	87 e6       	ldi	r24, 0x67	; 103
    23d8:	90 e0       	ldi	r25, 0x00	; 0
    23da:	90 93 c5 00 	sts	0x00C5, r25	; 0x8000c5 <__TEXT_REGION_LENGTH__+0x7c00c5>
    23de:	80 93 c4 00 	sts	0x00C4, r24	; 0x8000c4 <__TEXT_REGION_LENGTH__+0x7c00c4>
    23e2:	8d b1       	in	r24, 0x0d	; 13
    23e4:	82 60       	ori	r24, 0x02	; 2
    23e6:	8d b9       	out	0x0d, r24	; 13
    23e8:	e1 ec       	ldi	r30, 0xC1	; 193
    23ea:	f0 e0       	ldi	r31, 0x00	; 0
    23ec:	80 81       	ld	r24, Z
    23ee:	88 60       	ori	r24, 0x08	; 8
    23f0:	80 83       	st	Z, r24
    23f2:	8d b1       	in	r24, 0x0d	; 13
    23f4:	8e 7f       	andi	r24, 0xFE	; 254
    23f6:	8d b9       	out	0x0d, r24	; 13
    23f8:	80 81       	ld	r24, Z
    23fa:	80 61       	ori	r24, 0x10	; 16
    23fc:	80 83       	st	Z, r24
    23fe:	81 b1       	in	r24, 0x01	; 1
    2400:	84 60       	ori	r24, 0x04	; 4
    2402:	81 b9       	out	0x01, r24	; 1
    2404:	82 b1       	in	r24, 0x02	; 2
    2406:	84 60       	ori	r24, 0x04	; 4
    2408:	82 b9       	out	0x02, r24	; 2
    240a:	08 95       	ret

Disassembly of section .text.USART_TX_Data:

00002620 <USART_TX_Data>:
    2620:	90 91 c0 00 	lds	r25, 0x00C0	; 0x8000c0 <__TEXT_REGION_LENGTH__+0x7c00c0>
    2624:	95 ff       	sbrs	r25, 5
    2626:	fc cf       	rjmp	.-8      	; 0x2620 <USART_TX_Data>
    2628:	80 93 c6 00 	sts	0x00C6, r24	; 0x8000c6 <__TEXT_REGION_LENGTH__+0x7c00c6>
    262c:	08 95       	ret

Disassembly of section .text.USART_Data:

000020f4 <USART_Data>:
    20f4:	cf 92       	push	r12
    20f6:	df 92       	push	r13
    20f8:	ef 92       	push	r14
    20fa:	cf 93       	push	r28
    20fc:	df 93       	push	r29
    20fe:	6b 01       	movw	r12, r22
    2100:	e8 2e       	mov	r14, r24
    2102:	c0 e0       	ldi	r28, 0x00	; 0
    2104:	d0 e0       	ldi	r29, 0x00	; 0
    2106:	0f c0       	rjmp	.+30     	; 0x2126 <USART_Data+0x32>
    2108:	ae 2d       	mov	r26, r14
    210a:	c6 01       	movw	r24, r12
    210c:	8c 0f       	add	r24, r28
    210e:	9d 1f       	adc	r25, r29
    2110:	a1 1d       	adc	r26, r1
    2112:	d7 fd       	sbrc	r29, 7
    2114:	aa 95       	dec	r26
    2116:	fc 01       	movw	r30, r24
    2118:	5a 2f       	mov	r21, r26
    211a:	0e 94 2c 13 	call	0x2658	; 0x2658 <__xload_1>
    211e:	86 2f       	mov	r24, r22
    2120:	0e 94 10 13 	call	0x2620	; 0x2620 <USART_TX_Data>
    2124:	21 96       	adiw	r28, 0x01	; 1
    2126:	8e 2d       	mov	r24, r14
    2128:	b6 01       	movw	r22, r12
    212a:	0e 94 8a 12 	call	0x2514	; 0x2514 <strlen>
    212e:	c8 17       	cp	r28, r24
    2130:	d9 07       	cpc	r29, r25
    2132:	50 f3       	brcs	.-44     	; 0x2108 <USART_Data+0x14>
    2134:	df 91       	pop	r29
    2136:	cf 91       	pop	r28
    2138:	ef 90       	pop	r14
    213a:	df 90       	pop	r13
    213c:	cf 90       	pop	r12
    213e:	08 95       	ret

Disassembly of section .text.USART_RX_Data:

0000262e <USART_RX_Data>:
    262e:	80 91 c0 00 	lds	r24, 0x00C0	; 0x8000c0 <__TEXT_REGION_LENGTH__+0x7c00c0>
    2632:	88 23       	and	r24, r24
    2634:	e4 f7       	brge	.-8      	; 0x262e <USART_RX_Data>
    2636:	80 91 c6 00 	lds	r24, 0x00C6	; 0x8000c6 <__TEXT_REGION_LENGTH__+0x7c00c6>
    263a:	08 95       	ret

Disassembly of section .text.LED_Init:

000025c0 <LED_Init>:
    25c0:	e1 e0       	ldi	r30, 0x01	; 1
    25c2:	f1 e0       	ldi	r31, 0x01	; 1
    25c4:	80 81       	ld	r24, Z
    25c6:	80 66       	ori	r24, 0x60	; 96
    25c8:	80 83       	st	Z, r24
    25ca:	e2 e0       	ldi	r30, 0x02	; 2
    25cc:	f1 e0       	ldi	r31, 0x01	; 1
    25ce:	80 81       	ld	r24, Z
    25d0:	80 66       	ori	r24, 0x60	; 96
    25d2:	80 83       	st	Z, r24
    25d4:	08 95       	ret

Disassembly of section .text.LED_Red_Toggle:

0000263c <LED_Red_Toggle>:
}

void LED_Red_Toggle()
{
	PORTH ^= (1 << PH6); //toggle RED_LED (PH6)
    263c:	e2 e0       	ldi	r30, 0x02	; 2
    263e:	f1 e0       	ldi	r31, 0x01	; 1
    2640:	90 81       	ld	r25, Z
    2642:	80 e4       	ldi	r24, 0x40	; 64
    2644:	89 27       	eor	r24, r25
    2646:	80 83       	st	Z, r24
    2648:	08 95       	ret

Disassembly of section .text.LED_Green_Toggle:

0000264a <LED_Green_Toggle>:
}

void LED_Green_Toggle()
{
	PORTH ^= (1 << PH5); //toggle GREEN_LED (PH5)
    264a:	e2 e0       	ldi	r30, 0x02	; 2
    264c:	f1 e0       	ldi	r31, 0x01	; 1
    264e:	90 81       	ld	r25, Z
    2650:	80 e2       	ldi	r24, 0x20	; 32
    2652:	89 27       	eor	r24, r25
    2654:	80 83       	st	Z, r24
    2656:	08 95       	ret

Disassembly of section .text.VOLTAGE_Translator_Init:

000024a4 <VOLTAGE_Translator_Init>:
	PORTH |= (1 << PH5) | (1 << PH6); //initializing GREEN_LED off (PH5); initializing RED_LED off (PH6)
}

void LED_Toggle()
{
	PORTH ^= (1 << PH5) | (1 << PH6); //toggle GREEN_LED (PH5); toggle RED_LED (PH6)
    24a4:	87 b1       	in	r24, 0x07	; 7
    24a6:	80 64       	ori	r24, 0x40	; 64
    24a8:	87 b9       	out	0x07, r24	; 7
    24aa:	88 b1       	in	r24, 0x08	; 8
    24ac:	80 64       	ori	r24, 0x40	; 64
    24ae:	88 b9       	out	0x08, r24	; 8
    24b0:	83 b3       	in	r24, 0x13	; 19
    24b2:	81 60       	ori	r24, 0x01	; 1
    24b4:	83 bb       	out	0x13, r24	; 19
    24b6:	84 b3       	in	r24, 0x14	; 20
    24b8:	81 60       	ori	r24, 0x01	; 1
    24ba:	84 bb       	out	0x14, r24	; 20
    24bc:	83 b3       	in	r24, 0x13	; 19
    24be:	82 60       	ori	r24, 0x02	; 2
    24c0:	83 bb       	out	0x13, r24	; 19
    24c2:	84 b3       	in	r24, 0x14	; 20
    24c4:	82 60       	ori	r24, 0x02	; 2
    24c6:	84 bb       	out	0x14, r24	; 20
    24c8:	08 95       	ret

Disassembly of section .text.SLAVE_CS_Deselect:

00001f30 <SLAVE_CS_Deselect>:
    1f30:	81 b1       	in	r24, 0x01	; 1
    1f32:	88 60       	ori	r24, 0x08	; 8
    1f34:	81 b9       	out	0x01, r24	; 1
    1f36:	82 b1       	in	r24, 0x02	; 2
    1f38:	88 60       	ori	r24, 0x08	; 8
    1f3a:	82 b9       	out	0x02, r24	; 2
    1f3c:	81 b1       	in	r24, 0x01	; 1
    1f3e:	80 61       	ori	r24, 0x10	; 16
    1f40:	81 b9       	out	0x01, r24	; 1
    1f42:	82 b1       	in	r24, 0x02	; 2
    1f44:	80 61       	ori	r24, 0x10	; 16
    1f46:	82 b9       	out	0x02, r24	; 2
    1f48:	81 b1       	in	r24, 0x01	; 1
    1f4a:	80 62       	ori	r24, 0x20	; 32
    1f4c:	81 b9       	out	0x01, r24	; 1
    1f4e:	82 b1       	in	r24, 0x02	; 2
    1f50:	80 62       	ori	r24, 0x20	; 32
    1f52:	82 b9       	out	0x02, r24	; 2
    1f54:	81 b1       	in	r24, 0x01	; 1
    1f56:	80 64       	ori	r24, 0x40	; 64
    1f58:	81 b9       	out	0x01, r24	; 1
    1f5a:	82 b1       	in	r24, 0x02	; 2
    1f5c:	80 64       	ori	r24, 0x40	; 64
    1f5e:	82 b9       	out	0x02, r24	; 2
    1f60:	81 b1       	in	r24, 0x01	; 1
    1f62:	80 68       	ori	r24, 0x80	; 128
    1f64:	81 b9       	out	0x01, r24	; 1
    1f66:	82 b1       	in	r24, 0x02	; 2
    1f68:	80 68       	ori	r24, 0x80	; 128
    1f6a:	82 b9       	out	0x02, r24	; 2
    1f6c:	81 b1       	in	r24, 0x01	; 1
    1f6e:	82 60       	ori	r24, 0x02	; 2
    1f70:	81 b9       	out	0x01, r24	; 1
    1f72:	82 b1       	in	r24, 0x02	; 2
    1f74:	82 60       	ori	r24, 0x02	; 2
    1f76:	82 b9       	out	0x02, r24	; 2
    1f78:	81 b1       	in	r24, 0x01	; 1
    1f7a:	84 60       	ori	r24, 0x04	; 4
    1f7c:	81 b9       	out	0x01, r24	; 1
    1f7e:	82 b1       	in	r24, 0x02	; 2
    1f80:	84 60       	ori	r24, 0x04	; 4
    1f82:	82 b9       	out	0x02, r24	; 2
    1f84:	81 b1       	in	r24, 0x01	; 1
    1f86:	88 60       	ori	r24, 0x08	; 8
    1f88:	81 b9       	out	0x01, r24	; 1
    1f8a:	82 b1       	in	r24, 0x02	; 2
    1f8c:	88 60       	ori	r24, 0x08	; 8
    1f8e:	82 b9       	out	0x02, r24	; 2
    1f90:	08 95       	ret

Disassembly of section .text.UserInput:

00001df0 <UserInput>:
	ExecuteCommand(CommandBuffer); //puts CommandLine into Execute Function...
}

void UserInput() //asking for user input
{
	USART_Data("User Input:\n"); //asking for User Input
    1df0:	6d e5       	ldi	r22, 0x5D	; 93
    1df2:	72 e0       	ldi	r23, 0x02	; 2
    1df4:	80 e0       	ldi	r24, 0x00	; 0
    1df6:	0e 94 7a 10 	call	0x20f4	; 0x20f4 <USART_Data>
	
	c = USART_RX_Data(); //receive user char data type input
    1dfa:	0e 94 17 13 	call	0x262e	; 0x262e <USART_RX_Data>
    1dfe:	80 93 1c 03 	sts	0x031C, r24	; 0x80031c <c>
	while ((c != '\r')) //(c != '\n') &&
    1e02:	1c c0       	rjmp	.+56     	; 0x1e3c <UserInput+0x4c>
	{
		CommandBuffer[arr_address] = c; //adding character into array at index, creating a string
    1e04:	20 91 2a 04 	lds	r18, 0x042A	; 0x80042a <_end>
    1e08:	30 91 2b 04 	lds	r19, 0x042B	; 0x80042b <_end+0x1>
    1e0c:	f9 01       	movw	r30, r18
    1e0e:	e0 50       	subi	r30, 0x00	; 0
    1e10:	fe 4f       	sbci	r31, 0xFE	; 254
    1e12:	80 83       	st	Z, r24
		if (arr_address >= sizeof(CommandBuffer)) //making this an endless array for command lines
    1e14:	2e 3f       	cpi	r18, 0xFE	; 254
    1e16:	31 05       	cpc	r19, r1
    1e18:	20 f0       	brcs	.+8      	; 0x1e22 <UserInput+0x32>
		{
			arr_address = 0; //resets array at address 0
    1e1a:	10 92 2b 04 	sts	0x042B, r1	; 0x80042b <_end+0x1>
    1e1e:	10 92 2a 04 	sts	0x042A, r1	; 0x80042a <_end>
		}
		arr_address++;
    1e22:	80 91 2a 04 	lds	r24, 0x042A	; 0x80042a <_end>
    1e26:	90 91 2b 04 	lds	r25, 0x042B	; 0x80042b <_end+0x1>
    1e2a:	01 96       	adiw	r24, 0x01	; 1
    1e2c:	90 93 2b 04 	sts	0x042B, r25	; 0x80042b <_end+0x1>
    1e30:	80 93 2a 04 	sts	0x042A, r24	; 0x80042a <_end>
		c = USART_RX_Data(); //receive user char data type input
    1e34:	0e 94 17 13 	call	0x262e	; 0x262e <USART_RX_Data>
    1e38:	80 93 1c 03 	sts	0x031C, r24	; 0x80031c <c>
void UserInput() //asking for user input
{
	USART_Data("User Input:\n"); //asking for User Input
	
	c = USART_RX_Data(); //receive user char data type input
	while ((c != '\r')) //(c != '\n') &&
    1e3c:	80 91 1c 03 	lds	r24, 0x031C	; 0x80031c <c>
    1e40:	8d 30       	cpi	r24, 0x0D	; 13
    1e42:	01 f7       	brne	.-64     	; 0x1e04 <UserInput+0x14>
			arr_address = 0; //resets array at address 0
		}
		arr_address++;
		c = USART_RX_Data(); //receive user char data type input
	}
	CommandBuffer[arr_address] = '\r'; //adding NULL '\0' to mark end of Command String...; adding carriage return '\r' until I can get NULL to work...
    1e44:	e0 91 2a 04 	lds	r30, 0x042A	; 0x80042a <_end>
    1e48:	f0 91 2b 04 	lds	r31, 0x042B	; 0x80042b <_end+0x1>
    1e4c:	e0 50       	subi	r30, 0x00	; 0
    1e4e:	fe 4f       	sbci	r31, 0xFE	; 254
    1e50:	80 83       	st	Z, r24
	arr_address = 0; //resets array at address 0
    1e52:	10 92 2b 04 	sts	0x042B, r1	; 0x80042b <_end+0x1>
    1e56:	10 92 2a 04 	sts	0x042A, r1	; 0x80042a <_end>
    1e5a:	08 95       	ret

Disassembly of section .text.ExecuteCommand:

00000e0c <ExecuteCommand>:
}

void ExecuteCommand(const char *str) //Execute Command Line function
{
 e0c:	cf 92       	push	r12
 e0e:	df 92       	push	r13
 e10:	ef 92       	push	r14
 e12:	0f 93       	push	r16
 e14:	1f 93       	push	r17
 e16:	cf 93       	push	r28
 e18:	df 93       	push	r29
 e1a:	6b 01       	movw	r12, r22
 e1c:	e8 2e       	mov	r14, r24
	if (strcmp(str, "Flash ID") == 0) //Flash ID Command
 e1e:	2a e6       	ldi	r18, 0x6A	; 106
 e20:	32 e0       	ldi	r19, 0x02	; 2
 e22:	40 e0       	ldi	r20, 0x00	; 0
 e24:	0e 94 4e 11 	call	0x229c	; 0x229c <strcmp>
 e28:	89 2b       	or	r24, r25
 e2a:	29 f4       	brne	.+10     	; 0xe36 <ExecuteCommand+0x2a>
	{
		FLASH_ID(); //reads Device ID
 e2c:	0e 94 9e 0d 	call	0x1b3c	; 0x1b3c <FLASH_ID>
		CLEAR_ARR();
 e30:	0e 94 c6 10 	call	0x218c	; 0x218c <CLEAR_ARR>
 e34:	ae c0       	rjmp	.+348    	; 0xf92 <ExecuteCommand+0x186>
	}
	
	else if (strcmp(str, "Erase Memory") == 0) //Erase Flash Memory Command
 e36:	23 e7       	ldi	r18, 0x73	; 115
 e38:	32 e0       	ldi	r19, 0x02	; 2
 e3a:	40 e0       	ldi	r20, 0x00	; 0
 e3c:	8e 2d       	mov	r24, r14
 e3e:	b6 01       	movw	r22, r12
 e40:	0e 94 4e 11 	call	0x229c	; 0x229c <strcmp>
 e44:	89 2b       	or	r24, r25
 e46:	49 f4       	brne	.+18     	; 0xe5a <ExecuteCommand+0x4e>
	{
		s = 0; //sets main array address to normal operation
 e48:	10 92 26 04 	sts	0x0426, r1	; 0x800426 <s+0x1>
 e4c:	10 92 25 04 	sts	0x0425, r1	; 0x800425 <s>
		CLEAR_ARR();
 e50:	0e 94 c6 10 	call	0x218c	; 0x218c <CLEAR_ARR>
		FLASH_Erase(); //Erases Flash Block
 e54:	0e 94 52 10 	call	0x20a4	; 0x20a4 <FLASH_Erase>
 e58:	9c c0       	rjmp	.+312    	; 0xf92 <ExecuteCommand+0x186>
	}
	
	else if (strcmp(str, "Write Test") == 0) //Basic Flash Test Command
 e5a:	20 e8       	ldi	r18, 0x80	; 128
 e5c:	32 e0       	ldi	r19, 0x02	; 2
 e5e:	40 e0       	ldi	r20, 0x00	; 0
 e60:	8e 2d       	mov	r24, r14
 e62:	b6 01       	movw	r22, r12
 e64:	0e 94 4e 11 	call	0x229c	; 0x229c <strcmp>
 e68:	89 2b       	or	r24, r25
 e6a:	99 f4       	brne	.+38     	; 0xe92 <ExecuteCommand+0x86>
	{
		s = 0;
 e6c:	10 92 26 04 	sts	0x0426, r1	; 0x800426 <s+0x1>
 e70:	10 92 25 04 	sts	0x0425, r1	; 0x800425 <s>
		CLEAR_ARR();
 e74:	0e 94 c6 10 	call	0x218c	; 0x218c <CLEAR_ARR>
		
		UserInput(); //User Input is added into an array, which will be written to memory
 e78:	0e 94 f8 0e 	call	0x1df0	; 0x1df0 <UserInput>
		USART_Data(CommandBuffer); //will show what is in the array in question...
 e7c:	60 e0       	ldi	r22, 0x00	; 0
 e7e:	72 e0       	ldi	r23, 0x02	; 2
 e80:	80 e8       	ldi	r24, 0x80	; 128
 e82:	0e 94 7a 10 	call	0x20f4	; 0x20f4 <USART_Data>
		USART_TX_Data('\n');
 e86:	8a e0       	ldi	r24, 0x0A	; 10
 e88:	0e 94 10 13 	call	0x2620	; 0x2620 <USART_TX_Data>
		
		FLASH_Write_Data(); //adds user input into Flash Write Function, to memory...
 e8c:	0e 94 7b 0e 	call	0x1cf6	; 0x1cf6 <FLASH_Write_Data>
 e90:	80 c0       	rjmp	.+256    	; 0xf92 <ExecuteCommand+0x186>
		//CLEAR_ARR();
		//FLASH_Read();
		
		//USART_Data(data);
	}
	else if (strcmp(str, "Read Memory") == 0) //Basic Read Test Command
 e92:	2b e8       	ldi	r18, 0x8B	; 139
 e94:	32 e0       	ldi	r19, 0x02	; 2
 e96:	40 e0       	ldi	r20, 0x00	; 0
 e98:	8e 2d       	mov	r24, r14
 e9a:	b6 01       	movw	r22, r12
 e9c:	0e 94 4e 11 	call	0x229c	; 0x229c <strcmp>
 ea0:	89 2b       	or	r24, r25
 ea2:	89 f4       	brne	.+34     	; 0xec6 <ExecuteCommand+0xba>
	{
		s = 0; //sets main array to normal operations
 ea4:	10 92 26 04 	sts	0x0426, r1	; 0x800426 <s+0x1>
 ea8:	10 92 25 04 	sts	0x0425, r1	; 0x800425 <s>
		CLEAR_ARR();
 eac:	0e 94 c6 10 	call	0x218c	; 0x218c <CLEAR_ARR>
		FLASH_Read();
 eb0:	0e 94 c9 0f 	call	0x1f92	; 0x1f92 <FLASH_Read>

		USART_Data(data);
 eb4:	6d e1       	ldi	r22, 0x1D	; 29
 eb6:	73 e0       	ldi	r23, 0x03	; 3
 eb8:	80 e8       	ldi	r24, 0x80	; 128
 eba:	0e 94 7a 10 	call	0x20f4	; 0x20f4 <USART_Data>
		USART_TX_Data('\n');
 ebe:	8a e0       	ldi	r24, 0x0A	; 10
 ec0:	0e 94 10 13 	call	0x2620	; 0x2620 <USART_TX_Data>
 ec4:	66 c0       	rjmp	.+204    	; 0xf92 <ExecuteCommand+0x186>
	}
	else if (strcmp(str, "Parameter Page") == 0) //Basic Read Test Command
 ec6:	27 e9       	ldi	r18, 0x97	; 151
 ec8:	32 e0       	ldi	r19, 0x02	; 2
 eca:	40 e0       	ldi	r20, 0x00	; 0
 ecc:	8e 2d       	mov	r24, r14
 ece:	b6 01       	movw	r22, r12
 ed0:	0e 94 4e 11 	call	0x229c	; 0x229c <strcmp>
 ed4:	89 2b       	or	r24, r25
 ed6:	89 f5       	brne	.+98     	; 0xf3a <ExecuteCommand+0x12e>
	{
		s = 1; //sets main array address to the correct place
 ed8:	81 e0       	ldi	r24, 0x01	; 1
 eda:	90 e0       	ldi	r25, 0x00	; 0
 edc:	90 93 26 04 	sts	0x0426, r25	; 0x800426 <s+0x1>
 ee0:	80 93 25 04 	sts	0x0425, r24	; 0x800425 <s>
		CLEAR_ARR();
 ee4:	0e 94 c6 10 	call	0x218c	; 0x218c <CLEAR_ARR>
		FLASH_Para_Pg();
 ee8:	0e 94 bc 0e 	call	0x1d78	; 0x1d78 <FLASH_Para_Pg>
		
		//reading data from Data array
		for (int i = 0; i < sizeof(data); i++) //address is incremented automatically after each byte is shifted out
 eec:	00 e0       	ldi	r16, 0x00	; 0
 eee:	10 e0       	ldi	r17, 0x00	; 0
 ef0:	20 c0       	rjmp	.+64     	; 0xf32 <ExecuteCommand+0x126>
		{
			sprintf(status_feature, "Data Received: (0x%02X) \n", data[i]); //hex data to string
 ef2:	f8 01       	movw	r30, r16
 ef4:	e3 5e       	subi	r30, 0xE3	; 227
 ef6:	fc 4f       	sbci	r31, 0xFC	; 252
 ef8:	80 81       	ld	r24, Z
 efa:	1f 92       	push	r1
 efc:	8f 93       	push	r24
 efe:	86 ea       	ldi	r24, 0xA6	; 166
 f00:	92 e0       	ldi	r25, 0x02	; 2
 f02:	a0 e0       	ldi	r26, 0x00	; 0
 f04:	af 93       	push	r26
 f06:	9f 93       	push	r25
 f08:	8f 93       	push	r24
 f0a:	ce ef       	ldi	r28, 0xFE	; 254
 f0c:	d2 e0       	ldi	r29, 0x02	; 2
 f0e:	df 93       	push	r29
 f10:	cf 93       	push	r28
 f12:	0e 94 65 12 	call	0x24ca	; 0x24ca <_sprintf_cdnopuxX>
			USART_Data(status_feature);
 f16:	be 01       	movw	r22, r28
 f18:	80 e8       	ldi	r24, 0x80	; 128
 f1a:	0e 94 7a 10 	call	0x20f4	; 0x20f4 <USART_Data>
		s = 1; //sets main array address to the correct place
		CLEAR_ARR();
		FLASH_Para_Pg();
		
		//reading data from Data array
		for (int i = 0; i < sizeof(data); i++) //address is incremented automatically after each byte is shifted out
 f1e:	0f 5f       	subi	r16, 0xFF	; 255
 f20:	1f 4f       	sbci	r17, 0xFF	; 255
 f22:	8d b7       	in	r24, 0x3d	; 61
 f24:	9e b7       	in	r25, 0x3e	; 62
 f26:	07 96       	adiw	r24, 0x07	; 7
 f28:	0f b6       	in	r0, 0x3f	; 63
 f2a:	f8 94       	cli
 f2c:	9e bf       	out	0x3e, r25	; 62
 f2e:	0f be       	out	0x3f, r0	; 63
 f30:	8d bf       	out	0x3d, r24	; 61
 f32:	0e 3f       	cpi	r16, 0xFE	; 254
 f34:	11 05       	cpc	r17, r1
 f36:	e8 f2       	brcs	.-70     	; 0xef2 <ExecuteCommand+0xe6>
 f38:	2c c0       	rjmp	.+88     	; 0xf92 <ExecuteCommand+0x186>
		{
			sprintf(status_feature, "Data Received: (0x%02X) \n", data[i]); //hex data to string
			USART_Data(status_feature);
		}	
	}
	else if (strcmp(str, "Reset") == 0) //Basic Read Test Command
 f3a:	20 ec       	ldi	r18, 0xC0	; 192
 f3c:	32 e0       	ldi	r19, 0x02	; 2
 f3e:	40 e0       	ldi	r20, 0x00	; 0
 f40:	8e 2d       	mov	r24, r14
 f42:	b6 01       	movw	r22, r12
 f44:	0e 94 4e 11 	call	0x229c	; 0x229c <strcmp>
 f48:	89 2b       	or	r24, r25
 f4a:	29 f4       	brne	.+10     	; 0xf56 <ExecuteCommand+0x14a>
	{
		CLEAR_ARR();
 f4c:	0e 94 c6 10 	call	0x218c	; 0x218c <CLEAR_ARR>
		FLASH_Reset();
 f50:	0e 94 21 12 	call	0x2442	; 0x2442 <FLASH_Reset>
 f54:	1e c0       	rjmp	.+60     	; 0xf92 <ExecuteCommand+0x186>
	}
	else
	{
		USART_Data("1) Flash ID \n");
 f56:	66 ec       	ldi	r22, 0xC6	; 198
 f58:	72 e0       	ldi	r23, 0x02	; 2
 f5a:	80 e0       	ldi	r24, 0x00	; 0
 f5c:	0e 94 7a 10 	call	0x20f4	; 0x20f4 <USART_Data>
		USART_Data("2) Erase Memory \n");
 f60:	64 ed       	ldi	r22, 0xD4	; 212
 f62:	72 e0       	ldi	r23, 0x02	; 2
 f64:	80 e0       	ldi	r24, 0x00	; 0
 f66:	0e 94 7a 10 	call	0x20f4	; 0x20f4 <USART_Data>
		USART_Data("3) Write Test \n");
 f6a:	66 ee       	ldi	r22, 0xE6	; 230
 f6c:	72 e0       	ldi	r23, 0x02	; 2
 f6e:	80 e0       	ldi	r24, 0x00	; 0
 f70:	0e 94 7a 10 	call	0x20f4	; 0x20f4 <USART_Data>
		USART_Data("4) Read Memory \n");
 f74:	66 ef       	ldi	r22, 0xF6	; 246
 f76:	72 e0       	ldi	r23, 0x02	; 2
 f78:	80 e0       	ldi	r24, 0x00	; 0
 f7a:	0e 94 7a 10 	call	0x20f4	; 0x20f4 <USART_Data>
		USART_Data("5) Parameter Page \n");
 f7e:	67 e0       	ldi	r22, 0x07	; 7
 f80:	73 e0       	ldi	r23, 0x03	; 3
 f82:	80 e0       	ldi	r24, 0x00	; 0
 f84:	0e 94 7a 10 	call	0x20f4	; 0x20f4 <USART_Data>
		USART_Data("6) Reset \n");
 f88:	6b e1       	ldi	r22, 0x1B	; 27
 f8a:	73 e0       	ldi	r23, 0x03	; 3
 f8c:	80 e0       	ldi	r24, 0x00	; 0
 f8e:	0e 94 7a 10 	call	0x20f4	; 0x20f4 <USART_Data>
	}
}
 f92:	df 91       	pop	r29
 f94:	cf 91       	pop	r28
 f96:	1f 91       	pop	r17
 f98:	0f 91       	pop	r16
 f9a:	ef 90       	pop	r14
 f9c:	df 90       	pop	r13
 f9e:	cf 90       	pop	r12
 fa0:	08 95       	ret

Disassembly of section .text.CommandLine:

00001aa0 <CommandLine>:
#include "../include/AWS_Board_Operations.h"

int arr_address = 0; //for CommandBuffer array

void CommandLine()
{	
    1aa0:	cf 92       	push	r12
    1aa2:	df 92       	push	r13
    1aa4:	ef 92       	push	r14
	USART_Data("User Input:\n"); //asking for User Input
    1aa6:	6d e5       	ldi	r22, 0x5D	; 93
    1aa8:	72 e0       	ldi	r23, 0x02	; 2
    1aaa:	80 e0       	ldi	r24, 0x00	; 0
    1aac:	0e 94 7a 10 	call	0x20f4	; 0x20f4 <USART_Data>
	
	c = USART_RX_Data(); //receive user char data type input
    1ab0:	0e 94 17 13 	call	0x262e	; 0x262e <USART_RX_Data>
    1ab4:	80 93 1c 03 	sts	0x031C, r24	; 0x80031c <c>
	while ((c != '\r') && (c!= '\n'))
    1ab8:	1c c0       	rjmp	.+56     	; 0x1af2 <CommandLine+0x52>
	{
		CommandBuffer[arr_address] = c; //adding character into array at index, creating a string
    1aba:	20 91 2a 04 	lds	r18, 0x042A	; 0x80042a <_end>
    1abe:	30 91 2b 04 	lds	r19, 0x042B	; 0x80042b <_end+0x1>
    1ac2:	f9 01       	movw	r30, r18
    1ac4:	e0 50       	subi	r30, 0x00	; 0
    1ac6:	fe 4f       	sbci	r31, 0xFE	; 254
    1ac8:	80 83       	st	Z, r24
		if (arr_address >= sizeof(CommandBuffer)) //making this an endless array for command lines
    1aca:	2e 3f       	cpi	r18, 0xFE	; 254
    1acc:	31 05       	cpc	r19, r1
    1ace:	20 f0       	brcs	.+8      	; 0x1ad8 <CommandLine+0x38>
		{
			arr_address = 0; //resets array at address 0
    1ad0:	10 92 2b 04 	sts	0x042B, r1	; 0x80042b <_end+0x1>
    1ad4:	10 92 2a 04 	sts	0x042A, r1	; 0x80042a <_end>
		}
		arr_address++;
    1ad8:	80 91 2a 04 	lds	r24, 0x042A	; 0x80042a <_end>
    1adc:	90 91 2b 04 	lds	r25, 0x042B	; 0x80042b <_end+0x1>
    1ae0:	01 96       	adiw	r24, 0x01	; 1
    1ae2:	90 93 2b 04 	sts	0x042B, r25	; 0x80042b <_end+0x1>
    1ae6:	80 93 2a 04 	sts	0x042A, r24	; 0x80042a <_end>
		c = USART_RX_Data(); //receive user char data type input
    1aea:	0e 94 17 13 	call	0x262e	; 0x262e <USART_RX_Data>
    1aee:	80 93 1c 03 	sts	0x031C, r24	; 0x80031c <c>
void CommandLine()
{	
	USART_Data("User Input:\n"); //asking for User Input
	
	c = USART_RX_Data(); //receive user char data type input
	while ((c != '\r') && (c!= '\n'))
    1af2:	80 91 1c 03 	lds	r24, 0x031C	; 0x80031c <c>
    1af6:	8d 30       	cpi	r24, 0x0D	; 13
    1af8:	11 f0       	breq	.+4      	; 0x1afe <CommandLine+0x5e>
    1afa:	8a 30       	cpi	r24, 0x0A	; 10
    1afc:	f1 f6       	brne	.-68     	; 0x1aba <CommandLine+0x1a>
			arr_address = 0; //resets array at address 0
		}
		arr_address++;
		c = USART_RX_Data(); //receive user char data type input
	}
	CommandBuffer[arr_address] = '\0'; //adding NULL '\0' to mark end of Command String...; adding carriage return '\r' until I can get NULL to work...
    1afe:	e0 91 2a 04 	lds	r30, 0x042A	; 0x80042a <_end>
    1b02:	f0 91 2b 04 	lds	r31, 0x042B	; 0x80042b <_end+0x1>
    1b06:	e0 50       	subi	r30, 0x00	; 0
    1b08:	fe 4f       	sbci	r31, 0xFE	; 254
    1b0a:	10 82       	st	Z, r1
	arr_address = 0; //resets array at address 0
    1b0c:	10 92 2b 04 	sts	0x042B, r1	; 0x80042b <_end+0x1>
    1b10:	10 92 2a 04 	sts	0x042A, r1	; 0x80042a <_end>
	
	USART_Data(CommandBuffer);
    1b14:	80 e0       	ldi	r24, 0x00	; 0
    1b16:	92 e0       	ldi	r25, 0x02	; 2
    1b18:	6c 01       	movw	r12, r24
    1b1a:	20 e8       	ldi	r18, 0x80	; 128
    1b1c:	e2 2e       	mov	r14, r18
    1b1e:	8e 2d       	mov	r24, r14
    1b20:	b6 01       	movw	r22, r12
    1b22:	0e 94 7a 10 	call	0x20f4	; 0x20f4 <USART_Data>
	USART_TX_Data('\n');
    1b26:	8a e0       	ldi	r24, 0x0A	; 10
    1b28:	0e 94 10 13 	call	0x2620	; 0x2620 <USART_TX_Data>
		
	ExecuteCommand(CommandBuffer); //puts CommandLine into Execute Function...
    1b2c:	8e 2d       	mov	r24, r14
    1b2e:	b6 01       	movw	r22, r12
    1b30:	0e 94 06 07 	call	0xe0c	; 0xe0c <ExecuteCommand>
}
    1b34:	ef 90       	pop	r14
    1b36:	df 90       	pop	r13
    1b38:	cf 90       	pop	r12
    1b3a:	08 95       	ret

Disassembly of section .text.CLEAR_ARR:

0000218c <CLEAR_ARR>:
-Data
*/

void CLEAR_ARR(void) //to clear all relevant arrays with null
{
	for(int i = 0; i < sizeof(HEX_ID); i++)
    218c:	80 e0       	ldi	r24, 0x00	; 0
    218e:	90 e0       	ldi	r25, 0x00	; 0
    2190:	05 c0       	rjmp	.+10     	; 0x219c <CLEAR_ARR+0x10>
	{
		HEX_ID[i] = '\0';
    2192:	fc 01       	movw	r30, r24
    2194:	e5 5e       	subi	r30, 0xE5	; 229
    2196:	fb 4f       	sbci	r31, 0xFB	; 251
    2198:	10 82       	st	Z, r1
-Data
*/

void CLEAR_ARR(void) //to clear all relevant arrays with null
{
	for(int i = 0; i < sizeof(HEX_ID); i++)
    219a:	01 96       	adiw	r24, 0x01	; 1
    219c:	8a 30       	cpi	r24, 0x0A	; 10
    219e:	91 05       	cpc	r25, r1
    21a0:	c0 f3       	brcs	.-16     	; 0x2192 <CLEAR_ARR+0x6>
    21a2:	80 e0       	ldi	r24, 0x00	; 0
    21a4:	90 e0       	ldi	r25, 0x00	; 0
    21a6:	05 c0       	rjmp	.+10     	; 0x21b2 <CLEAR_ARR+0x26>
		HEX_ID[i] = '\0';
	}
	
	for(int i = 0; i < sizeof(data); i++)
	{
		data[i] = '\0';
    21a8:	fc 01       	movw	r30, r24
    21aa:	e3 5e       	subi	r30, 0xE3	; 227
    21ac:	fc 4f       	sbci	r31, 0xFC	; 252
    21ae:	10 82       	st	Z, r1
	for(int i = 0; i < sizeof(HEX_ID); i++)
	{
		HEX_ID[i] = '\0';
	}
	
	for(int i = 0; i < sizeof(data); i++)
    21b0:	01 96       	adiw	r24, 0x01	; 1
    21b2:	8e 3f       	cpi	r24, 0xFE	; 254
    21b4:	91 05       	cpc	r25, r1
    21b6:	c0 f3       	brcs	.-16     	; 0x21a8 <CLEAR_ARR+0x1c>
    21b8:	80 e0       	ldi	r24, 0x00	; 0
    21ba:	90 e0       	ldi	r25, 0x00	; 0
    21bc:	05 c0       	rjmp	.+10     	; 0x21c8 <CLEAR_ARR+0x3c>
		data[i] = '\0';
	}
	
	for (int i = 0; i < sizeof(CommandBuffer); i++)
	{
		CommandBuffer[i] = '\0';
    21be:	fc 01       	movw	r30, r24
    21c0:	e0 50       	subi	r30, 0x00	; 0
    21c2:	fe 4f       	sbci	r31, 0xFE	; 254
    21c4:	10 82       	st	Z, r1
	for(int i = 0; i < sizeof(data); i++)
	{
		data[i] = '\0';
	}
	
	for (int i = 0; i < sizeof(CommandBuffer); i++)
    21c6:	01 96       	adiw	r24, 0x01	; 1
    21c8:	8e 3f       	cpi	r24, 0xFE	; 254
    21ca:	91 05       	cpc	r25, r1
    21cc:	c0 f3       	brcs	.-16     	; 0x21be <CLEAR_ARR+0x32>
	{
		CommandBuffer[i] = '\0';
	}
}
    21ce:	08 95       	ret

Disassembly of section .text.SPI_MASTER_Init:

000024f0 <SPI_MASTER_Init>:

//Master Mode (for ATmega 2560) allows full duplex communication between the ATmega 2560 to Flash NAND Memory chip
void SPI_MASTER_Init() //initializes Serial Peripheral Interference (SPI) operations in Master Mode
{
	//DDR pin assignment, ~CS, MOSI, SCK are outputs (1), and MISO is input (0) (in Master Mode)
	DDRB |= (1 << PB2) | (1 << PB1); //setting MASTER_MOSI (PB2) as output; setting MASTER_SCK (PB1) as output;
    24f0:	84 b1       	in	r24, 0x04	; 4
    24f2:	86 60       	ori	r24, 0x06	; 6
    24f4:	84 b9       	out	0x04, r24	; 4
	DDRB &= ~(1 << PB3); //setting MASTER_MISO (PB3) as input;
    24f6:	84 b1       	in	r24, 0x04	; 4
    24f8:	87 7f       	andi	r24, 0xF7	; 247
    24fa:	84 b9       	out	0x04, r24	; 4
	
	//MUST set ~SS on the ATmega 2560 in order to get SPI operations working...
	DDRB |= (1 << PB0); //setting ~SS pin (PB0) as output;
    24fc:	84 b1       	in	r24, 0x04	; 4
    24fe:	81 60       	ori	r24, 0x01	; 1
    2500:	84 b9       	out	0x04, r24	; 4
	PORTB |= (1 << PB0); //setting ~SS pin (PB0) high to "de-select" slave device (not connected to the Flash NAND anyway)
    2502:	85 b1       	in	r24, 0x05	; 5
    2504:	81 60       	ori	r24, 0x01	; 1
    2506:	85 b9       	out	0x05, r24	; 5
	//PORTB &= ~(1 << PB0); //setting ~SS pin (PB0) low to "select" slave device (not connected to the Flash NAND anyway)
	
	SPCR |= (1 << SPE) | (1 << MSTR) | (1 << SPR0); // SPE: enables the SPI; MSTR: sets SPI to Master SPI mode; SPR1 and SPR0: sets the SCK Frequency (divisor of 16);
    2508:	8c b5       	in	r24, 0x2c	; 44
    250a:	81 65       	ori	r24, 0x51	; 81
    250c:	8c bd       	out	0x2c, r24	; 44
	SPCR &= ~(1 << DORD) | ~(1 << CPOL) | ~(1 << CPHA) | ~(1 << SPR1);//DORD, Data order set to MSB transmitted first; SPI Timing Mode is 0, where CPOL and CPHA are both 0
    250e:	8c b5       	in	r24, 0x2c	; 44
    2510:	8c bd       	out	0x2c, r24	; 44
    2512:	08 95       	ret

Disassembly of section .text.FLASH_ID:

00001b3c <FLASH_ID>:
	
	FLASH_Write_Disable();
}

void FLASH_ID() //read device ID
{	
    1b3c:	cf 93       	push	r28
    1b3e:	df 93       	push	r29
	PORTA &= ~(1 << PA3); //~CS pin set low for selecting slave device
    1b40:	82 b1       	in	r24, 0x02	; 2
    1b42:	87 7f       	andi	r24, 0xF7	; 247
    1b44:	82 b9       	out	0x02, r24	; 2
	#else
		//round up by default
		__ticks_dc = (uint32_t)(ceil(fabs(__tmp)));
	#endif

	__builtin_avr_delay_cycles(__ticks_dc);
    1b46:	8a e1       	ldi	r24, 0x1A	; 26
    1b48:	8a 95       	dec	r24
    1b4a:	f1 f7       	brne	.-4      	; 0x1b48 <FLASH_ID+0xc>
    1b4c:	00 c0       	rjmp	.+0      	; 0x1b4e <FLASH_ID+0x12>
	
	_delay_us(5); //change delay if it doesn't work....
	
	SPDR = READ_ID; //Sending READ_ID Command into SPI Data Register (SPDR)
    1b4e:	8f e9       	ldi	r24, 0x9F	; 159
    1b50:	8e bd       	out	0x2e, r24	; 46
	while(!(SPSR & (1 << SPIF))); //waiting until serial transfer is complete
    1b52:	0d b4       	in	r0, 0x2d	; 45
    1b54:	07 fe       	sbrs	r0, 7
    1b56:	fd cf       	rjmp	.-6      	; 0x1b52 <FLASH_ID+0x16>
	status = SPDR; //makes sure to clear the SPIF flag in the 2560, useless byte
    1b58:	8e b5       	in	r24, 0x2e	; 46
    1b5a:	80 93 27 04 	sts	0x0427, r24	; 0x800427 <status>
	
	SPDR = 0x00; //send dummy byte
    1b5e:	1e bc       	out	0x2e, r1	; 46
	while(!(SPSR & (1 << SPIF))); //waiting until serial transfer is complete
    1b60:	0d b4       	in	r0, 0x2d	; 45
    1b62:	07 fe       	sbrs	r0, 7
    1b64:	fd cf       	rjmp	.-6      	; 0x1b60 <FLASH_ID+0x24>
	status = SPDR; //makes sure to clear the SPIF flag in the 2560, useless byte
    1b66:	8e b5       	in	r24, 0x2e	; 46
    1b68:	80 93 27 04 	sts	0x0427, r24	; 0x800427 <status>
	
	SPDR = 0x00; //send dummy byte
    1b6c:	1e bc       	out	0x2e, r1	; 46
	while(!(SPSR & (1 << SPIF))); //waiting until serial transfer is complete
    1b6e:	0d b4       	in	r0, 0x2d	; 45
    1b70:	07 fe       	sbrs	r0, 7
    1b72:	fd cf       	rjmp	.-6      	; 0x1b6e <FLASH_ID+0x32>
	HEX_ID [0] = SPDR; //clears the SPIF flag; returns Micron ID
    1b74:	8e b5       	in	r24, 0x2e	; 46
    1b76:	80 93 1b 04 	sts	0x041B, r24	; 0x80041b <HEX_ID>
	
	SPDR = 0x00; //send dummy byte
    1b7a:	1e bc       	out	0x2e, r1	; 46
	while(!(SPSR & (1 << SPIF))); //waiting until serial transfer is complete
    1b7c:	0d b4       	in	r0, 0x2d	; 45
    1b7e:	07 fe       	sbrs	r0, 7
    1b80:	fd cf       	rjmp	.-6      	; 0x1b7c <FLASH_ID+0x40>
	HEX_ID [1] = SPDR; //clears the SPIF flag; returns 4Gb 3.3V Device ID
    1b82:	9e b5       	in	r25, 0x2e	; 46
    1b84:	eb e1       	ldi	r30, 0x1B	; 27
    1b86:	f4 e0       	ldi	r31, 0x04	; 4
    1b88:	91 83       	std	Z+1, r25	; 0x01
	
	PORTA |= (1 << PA3); //~CS pin set high for de-selecting slave device; to end the command sequence
    1b8a:	82 b1       	in	r24, 0x02	; 2
    1b8c:	88 60       	ori	r24, 0x08	; 8
    1b8e:	82 b9       	out	0x02, r24	; 2

	sprintf(status_feature, "Read Device ID: Micron ID (0x%02X) Device ID (0x%02X) \n", HEX_ID[0], HEX_ID[1]); //hex data to string
    1b90:	80 81       	ld	r24, Z
    1b92:	1f 92       	push	r1
    1b94:	9f 93       	push	r25
    1b96:	1f 92       	push	r1
    1b98:	8f 93       	push	r24
    1b9a:	86 e6       	ldi	r24, 0x66	; 102
    1b9c:	91 e0       	ldi	r25, 0x01	; 1
    1b9e:	a0 e0       	ldi	r26, 0x00	; 0
    1ba0:	af 93       	push	r26
    1ba2:	9f 93       	push	r25
    1ba4:	8f 93       	push	r24
    1ba6:	ce ef       	ldi	r28, 0xFE	; 254
    1ba8:	d2 e0       	ldi	r29, 0x02	; 2
    1baa:	df 93       	push	r29
    1bac:	cf 93       	push	r28
    1bae:	0e 94 65 12 	call	0x24ca	; 0x24ca <_sprintf_cdnopuxX>
	USART_Data(status_feature);
    1bb2:	be 01       	movw	r22, r28
    1bb4:	80 e8       	ldi	r24, 0x80	; 128
    1bb6:	0e 94 7a 10 	call	0x20f4	; 0x20f4 <USART_Data>
    1bba:	9a e1       	ldi	r25, 0x1A	; 26
    1bbc:	9a 95       	dec	r25
    1bbe:	f1 f7       	brne	.-4      	; 0x1bbc <FLASH_ID+0x80>
    1bc0:	00 c0       	rjmp	.+0      	; 0x1bc2 <FLASH_ID+0x86>
	
	_delay_us(5); //change delay if it doesn't work....
}
    1bc2:	8d b7       	in	r24, 0x3d	; 61
    1bc4:	9e b7       	in	r25, 0x3e	; 62
    1bc6:	09 96       	adiw	r24, 0x09	; 9
    1bc8:	0f b6       	in	r0, 0x3f	; 63
    1bca:	f8 94       	cli
    1bcc:	9e bf       	out	0x3e, r25	; 62
    1bce:	0f be       	out	0x3f, r0	; 63
    1bd0:	8d bf       	out	0x3d, r24	; 61
    1bd2:	df 91       	pop	r29
    1bd4:	cf 91       	pop	r28
    1bd6:	08 95       	ret

Disassembly of section .text.FLASH_Reset:

00002442 <FLASH_Reset>:

void FLASH_Reset() //reset memory device
{
	PORTA &= ~(1 << PA3); //~CS pin set low for selecting slave device
    2442:	82 b1       	in	r24, 0x02	; 2
    2444:	87 7f       	andi	r24, 0xF7	; 247
    2446:	82 b9       	out	0x02, r24	; 2
    2448:	8a e1       	ldi	r24, 0x1A	; 26
    244a:	8a 95       	dec	r24
    244c:	f1 f7       	brne	.-4      	; 0x244a <FLASH_Reset+0x8>
    244e:	00 c0       	rjmp	.+0      	; 0x2450 <FLASH_Reset+0xe>
	
	_delay_us(5); //change delay if it doesn't work....
	
	SPDR = RESET; //Sending READ_ID Command into SPI Data Register (SPDR)
    2450:	8f ef       	ldi	r24, 0xFF	; 255
    2452:	8e bd       	out	0x2e, r24	; 46
	while(!(SPSR & (1 << SPIF))); //waiting until serial transfer is complete
    2454:	0d b4       	in	r0, 0x2d	; 45
    2456:	07 fe       	sbrs	r0, 7
    2458:	fd cf       	rjmp	.-6      	; 0x2454 <FLASH_Reset+0x12>
	//HEX_ID [0] = SPDR; //no need to read because the while loop's purpose is to make sure the SPIF flag clears; useless byte
	
	PORTA |= (1 << PA3); //~CS pin set high for de-selecting slave device; to end the command sequence
    245a:	82 b1       	in	r24, 0x02	; 2
    245c:	88 60       	ori	r24, 0x08	; 8
    245e:	82 b9       	out	0x02, r24	; 2
    2460:	8a e1       	ldi	r24, 0x1A	; 26
    2462:	8a 95       	dec	r24
    2464:	f1 f7       	brne	.-4      	; 0x2462 <FLASH_Reset+0x20>
    2466:	00 c0       	rjmp	.+0      	; 0x2468 <FLASH_Reset+0x26>

	_delay_us(5); //change delay if it doesn't work....
	
	USART_Data("Device Reseted \n");
    2468:	6e e9       	ldi	r22, 0x9E	; 158
    246a:	71 e0       	ldi	r23, 0x01	; 1
    246c:	80 e0       	ldi	r24, 0x00	; 0
    246e:	0e 94 7a 10 	call	0x20f4	; 0x20f4 <USART_Data>
    2472:	08 95       	ret

Disassembly of section .text.FLASH_MainArray_Address:

00001ff4 <FLASH_MainArray_Address>:
	_delay_us(5); //change delay if it doesn't work....
}

void FLASH_MainArray_Address(int s) //24-bit address
{
	if (s == 0) //normal memory operation
    1ff4:	00 97       	sbiw	r24, 0x00	; 0
    1ff6:	a9 f4       	brne	.+42     	; 0x2022 <__DATA_REGION_LENGTH__+0x22>
	{
		SPDR = 0x00; //the high-byte of the 24-bit address
    1ff8:	1e bc       	out	0x2e, r1	; 46
		while (!(SPSR & (1 << SPIF)));
    1ffa:	0d b4       	in	r0, 0x2d	; 45
    1ffc:	07 fe       	sbrs	r0, 7
    1ffe:	fd cf       	rjmp	.-6      	; 0x1ffa <FLASH_MainArray_Address+0x6>
		status = SPDR; //makes sure to clear the SPIF flag in the 2560, useless byte
    2000:	2e b5       	in	r18, 0x2e	; 46
    2002:	20 93 27 04 	sts	0x0427, r18	; 0x800427 <status>
				
		SPDR = 0x00; //the mid-byte of the 24-bit address
    2006:	1e bc       	out	0x2e, r1	; 46
		while (!(SPSR & (1 << SPIF)));
    2008:	0d b4       	in	r0, 0x2d	; 45
    200a:	07 fe       	sbrs	r0, 7
    200c:	fd cf       	rjmp	.-6      	; 0x2008 <__DATA_REGION_LENGTH__+0x8>
		status = SPDR; //makes sure to clear the SPIF flag in the 2560, useless byte
    200e:	2e b5       	in	r18, 0x2e	; 46
    2010:	20 93 27 04 	sts	0x0427, r18	; 0x800427 <status>
		
		SPDR = 0x00; //the low-byte of the 24-bit address; block/page address is 0x00
    2014:	1e bc       	out	0x2e, r1	; 46
		while (!(SPSR & (1 << SPIF)));
    2016:	0d b4       	in	r0, 0x2d	; 45
    2018:	07 fe       	sbrs	r0, 7
    201a:	fd cf       	rjmp	.-6      	; 0x2016 <__DATA_REGION_LENGTH__+0x16>
		status = SPDR; //makes sure to clear the SPIF flag in the 2560, useless byte
    201c:	2e b5       	in	r18, 0x2e	; 46
    201e:	20 93 27 04 	sts	0x0427, r18	; 0x800427 <status>
	}
	
	if (s == 1) //access to parameter page 
    2022:	01 97       	sbiw	r24, 0x01	; 1
    2024:	b1 f4       	brne	.+44     	; 0x2052 <__DATA_REGION_LENGTH__+0x52>
	{
		SPDR = 0x00; //the high-byte of the 24-bit address
    2026:	1e bc       	out	0x2e, r1	; 46
		while (!(SPSR & (1 << SPIF)));
    2028:	0d b4       	in	r0, 0x2d	; 45
    202a:	07 fe       	sbrs	r0, 7
    202c:	fd cf       	rjmp	.-6      	; 0x2028 <__DATA_REGION_LENGTH__+0x28>
		status = SPDR; //makes sure to clear the SPIF flag in the 2560, useless byte
    202e:	8e b5       	in	r24, 0x2e	; 46
    2030:	80 93 27 04 	sts	0x0427, r24	; 0x800427 <status>
		
		SPDR = 0x00; //the mid-byte of the 24-bit address
    2034:	1e bc       	out	0x2e, r1	; 46
		while (!(SPSR & (1 << SPIF)));
    2036:	0d b4       	in	r0, 0x2d	; 45
    2038:	07 fe       	sbrs	r0, 7
    203a:	fd cf       	rjmp	.-6      	; 0x2036 <__DATA_REGION_LENGTH__+0x36>
		status = SPDR; //makes sure to clear the SPIF flag in the 2560, useless byte
    203c:	8e b5       	in	r24, 0x2e	; 46
    203e:	80 93 27 04 	sts	0x0427, r24	; 0x800427 <status>
		
		SPDR = 0x01; //the low-byte of the 24-bit address; block/page address is 0x01 for Parameter pg.
    2042:	81 e0       	ldi	r24, 0x01	; 1
    2044:	8e bd       	out	0x2e, r24	; 46
		while (!(SPSR & (1 << SPIF)));
    2046:	0d b4       	in	r0, 0x2d	; 45
    2048:	07 fe       	sbrs	r0, 7
    204a:	fd cf       	rjmp	.-6      	; 0x2046 <__DATA_REGION_LENGTH__+0x46>
		status = SPDR; //makes sure to clear the SPIF flag in the 2560, useless byte
    204c:	8e b5       	in	r24, 0x2e	; 46
    204e:	80 93 27 04 	sts	0x0427, r24	; 0x800427 <status>
    2052:	08 95       	ret

Disassembly of section .text.FLASH_Cache_Address:

000021d0 <FLASH_Cache_Address>:
	}
}

void FLASH_Cache_Address(int s) //16-bit address (actual address size is 12-bits)
{
	if (s == 0) //normal  memory operations (sets plane bit to 1)
    21d0:	00 97       	sbiw	r24, 0x00	; 0
    21d2:	79 f4       	brne	.+30     	; 0x21f2 <FLASH_Cache_Address+0x22>
	{
		SPDR = 0x10; //the high-byte of the 16-bit address; 0x10 sets the plane select bit to 1
    21d4:	20 e1       	ldi	r18, 0x10	; 16
    21d6:	2e bd       	out	0x2e, r18	; 46
		while(!(SPSR & (1 << SPIF)));
    21d8:	0d b4       	in	r0, 0x2d	; 45
    21da:	07 fe       	sbrs	r0, 7
    21dc:	fd cf       	rjmp	.-6      	; 0x21d8 <FLASH_Cache_Address+0x8>
		status = SPDR; //makes sure to clear the SPIF flag in the 2560, useless byte
    21de:	2e b5       	in	r18, 0x2e	; 46
    21e0:	20 93 27 04 	sts	0x0427, r18	; 0x800427 <status>

		SPDR = 0x00; //the low-byte of the 16-bit address
    21e4:	1e bc       	out	0x2e, r1	; 46
		while(!(SPSR & (1 << SPIF))); //waiting until serial transfer is complete
    21e6:	0d b4       	in	r0, 0x2d	; 45
    21e8:	07 fe       	sbrs	r0, 7
    21ea:	fd cf       	rjmp	.-6      	; 0x21e6 <FLASH_Cache_Address+0x16>
		status = SPDR; //makes sure to clear the SPIF flag in the 2560, useless byte
    21ec:	2e b5       	in	r18, 0x2e	; 46
    21ee:	20 93 27 04 	sts	0x0427, r18	; 0x800427 <status>
	}
	
	if (s == 1) //parameter page requires this for cache (may change)
    21f2:	01 97       	sbiw	r24, 0x01	; 1
    21f4:	71 f4       	brne	.+28     	; 0x2212 <__stack+0x13>
	{
		SPDR = 0x00; //the high-byte of the 16-bit address; setting plane bit to 0x00 because of parameter pg
    21f6:	1e bc       	out	0x2e, r1	; 46
		while(!(SPSR & (1 << SPIF)));
    21f8:	0d b4       	in	r0, 0x2d	; 45
    21fa:	07 fe       	sbrs	r0, 7
    21fc:	fd cf       	rjmp	.-6      	; 0x21f8 <FLASH_Cache_Address+0x28>
		HEX_ID [0]= SPDR; //makes sure to clear the SPIF flag in the 2560, useless byte
    21fe:	8e b5       	in	r24, 0x2e	; 46
    2200:	80 93 1b 04 	sts	0x041B, r24	; 0x80041b <HEX_ID>

		SPDR = 0x00; //the low-byte of the 16-bit address
    2204:	1e bc       	out	0x2e, r1	; 46
		while(!(SPSR & (1 << SPIF))); //waiting until serial transfer is complete
    2206:	0d b4       	in	r0, 0x2d	; 45
    2208:	07 fe       	sbrs	r0, 7
    220a:	fd cf       	rjmp	.-6      	; 0x2206 <__stack+0x7>
		HEX_ID [0]= SPDR; //makes sure to clear the SPIF flag in the 2560, useless byte
    220c:	8e b5       	in	r24, 0x2e	; 46
    220e:	80 93 1b 04 	sts	0x041B, r24	; 0x80041b <HEX_ID>
    2212:	08 95       	ret

Disassembly of section .text.FLASH_Status:

00001810 <FLASH_Status>:
	}
}

void FLASH_Status() //this makes sure that data finishes transferring
{
    1810:	cf 93       	push	r28
    1812:	df 93       	push	r29
	PORTA &= ~(1 << PA3); //~CS pin set low for selecting slave device
    1814:	82 b1       	in	r24, 0x02	; 2
    1816:	87 7f       	andi	r24, 0xF7	; 247
    1818:	82 b9       	out	0x02, r24	; 2
    181a:	8a e1       	ldi	r24, 0x1A	; 26
    181c:	8a 95       	dec	r24
    181e:	f1 f7       	brne	.-4      	; 0x181c <FLASH_Status+0xc>
    1820:	00 c0       	rjmp	.+0      	; 0x1822 <FLASH_Status+0x12>
	
	_delay_us(5); //change delay if it doesn't work....
	
	SPDR = GET_FEATURES; //sending Get Features command into the SPI Data Register (SPDR)
    1822:	8f e0       	ldi	r24, 0x0F	; 15
    1824:	8e bd       	out	0x2e, r24	; 46
	while (!(SPSR & (1 << SPIF)));
    1826:	0d b4       	in	r0, 0x2d	; 45
    1828:	07 fe       	sbrs	r0, 7
    182a:	fd cf       	rjmp	.-6      	; 0x1826 <FLASH_Status+0x16>
	status = SPDR; //makes sure to clear the SPIF flag in the 2560, useless byte
    182c:	8e b5       	in	r24, 0x2e	; 46
    182e:	80 93 27 04 	sts	0x0427, r24	; 0x800427 <status>
	
	SPDR = STATUS_REGISTER_ADDRESS; //status register address for the feature operation
    1832:	80 ec       	ldi	r24, 0xC0	; 192
    1834:	8e bd       	out	0x2e, r24	; 46
	while(!(SPSR & (1 << SPIF))); //waiting until serial transfer is complete
    1836:	0d b4       	in	r0, 0x2d	; 45
    1838:	07 fe       	sbrs	r0, 7
    183a:	fd cf       	rjmp	.-6      	; 0x1836 <FLASH_Status+0x26>
	status = SPDR; //makes sure to clear the SPIF flag in the 2560, useless byte
    183c:	8e b5       	in	r24, 0x2e	; 46
    183e:	80 93 27 04 	sts	0x0427, r24	; 0x800427 <status>
	
	for (int i = 0; i < 2; i++ )
    1842:	80 e0       	ldi	r24, 0x00	; 0
    1844:	90 e0       	ldi	r25, 0x00	; 0
    1846:	0a c0       	rjmp	.+20     	; 0x185c <FLASH_Status+0x4c>
	{
		SPDR = 0x00; //sending dummy byte to continue to get status
    1848:	1e bc       	out	0x2e, r1	; 46
		while(!(SPSR & (1 << SPIF))); //waiting until serial transfer is complete
    184a:	0d b4       	in	r0, 0x2d	; 45
    184c:	07 fe       	sbrs	r0, 7
    184e:	fd cf       	rjmp	.-6      	; 0x184a <FLASH_Status+0x3a>
		HEX_ID [i] = SPDR; //read incoming status data and puts it into an array
    1850:	2e b5       	in	r18, 0x2e	; 46
    1852:	fc 01       	movw	r30, r24
    1854:	e5 5e       	subi	r30, 0xE5	; 229
    1856:	fb 4f       	sbci	r31, 0xFB	; 251
    1858:	20 83       	st	Z, r18
	
	SPDR = STATUS_REGISTER_ADDRESS; //status register address for the feature operation
	while(!(SPSR & (1 << SPIF))); //waiting until serial transfer is complete
	status = SPDR; //makes sure to clear the SPIF flag in the 2560, useless byte
	
	for (int i = 0; i < 2; i++ )
    185a:	01 96       	adiw	r24, 0x01	; 1
    185c:	82 30       	cpi	r24, 0x02	; 2
    185e:	91 05       	cpc	r25, r1
    1860:	9c f3       	brlt	.-26     	; 0x1848 <FLASH_Status+0x38>
		SPDR = 0x00; //sending dummy byte to continue to get status
		while(!(SPSR & (1 << SPIF))); //waiting until serial transfer is complete
		HEX_ID [i] = SPDR; //read incoming status data and puts it into an array
	}
	
	PORTA |= (1 << PA3); //~CS pin set high for de-selecting slave device; to end the command sequence
    1862:	82 b1       	in	r24, 0x02	; 2
    1864:	88 60       	ori	r24, 0x08	; 8
    1866:	82 b9       	out	0x02, r24	; 2
	
	//sprintf(status_feature, "Get Features: Status (0x%02X) Status Register (0x%02X) Status Cleared (0x%02X) \n", HEX_ID[0], HEX_ID[1], HEX_ID[2]); //hex data to string
	sprintf(status_feature, "Get Features: Status Cleared (0x%02X), (0x%02X)\n", HEX_ID[0], HEX_ID[1]); //hex data to string
    1868:	eb e1       	ldi	r30, 0x1B	; 27
    186a:	f4 e0       	ldi	r31, 0x04	; 4
    186c:	91 81       	ldd	r25, Z+1	; 0x01
    186e:	80 81       	ld	r24, Z
    1870:	1f 92       	push	r1
    1872:	9f 93       	push	r25
    1874:	1f 92       	push	r1
    1876:	8f 93       	push	r24
    1878:	8f ea       	ldi	r24, 0xAF	; 175
    187a:	91 e0       	ldi	r25, 0x01	; 1
    187c:	a0 e0       	ldi	r26, 0x00	; 0
    187e:	af 93       	push	r26
    1880:	9f 93       	push	r25
    1882:	8f 93       	push	r24
    1884:	ce ef       	ldi	r28, 0xFE	; 254
    1886:	d2 e0       	ldi	r29, 0x02	; 2
    1888:	df 93       	push	r29
    188a:	cf 93       	push	r28
    188c:	0e 94 65 12 	call	0x24ca	; 0x24ca <_sprintf_cdnopuxX>
	USART_Data(status_feature);
    1890:	be 01       	movw	r22, r28
    1892:	80 e8       	ldi	r24, 0x80	; 128
    1894:	0e 94 7a 10 	call	0x20f4	; 0x20f4 <USART_Data>
    1898:	9a e1       	ldi	r25, 0x1A	; 26
    189a:	9a 95       	dec	r25
    189c:	f1 f7       	brne	.-4      	; 0x189a <FLASH_Status+0x8a>
    189e:	00 c0       	rjmp	.+0      	; 0x18a0 <FLASH_Status+0x90>
	
	_delay_us(5); //change delay if it doesn't work....
}
    18a0:	8d b7       	in	r24, 0x3d	; 61
    18a2:	9e b7       	in	r25, 0x3e	; 62
    18a4:	09 96       	adiw	r24, 0x09	; 9
    18a6:	0f b6       	in	r0, 0x3f	; 63
    18a8:	f8 94       	cli
    18aa:	9e bf       	out	0x3e, r25	; 62
    18ac:	0f be       	out	0x3f, r0	; 63
    18ae:	8d bf       	out	0x3d, r24	; 61
    18b0:	df 91       	pop	r29
    18b2:	cf 91       	pop	r28
    18b4:	08 95       	ret

Disassembly of section .text.FLASH_Write_Enable:

00002214 <FLASH_Write_Enable>:
	SPCR &= ~(1 << DORD) | ~(1 << CPOL) | ~(1 << CPHA) | ~(1 << SPR1);//DORD, Data order set to MSB transmitted first; SPI Timing Mode is 0, where CPOL and CPHA are both 0
}

void FLASH_Write_Enable (void) //select Slave device and initializes Write operations onto Flash NAND
{
	PORTA &= ~(1 << PA3); //~CS pin set low for selecting slave device
    2214:	82 b1       	in	r24, 0x02	; 2
    2216:	87 7f       	andi	r24, 0xF7	; 247
    2218:	82 b9       	out	0x02, r24	; 2
    221a:	8a e1       	ldi	r24, 0x1A	; 26
    221c:	8a 95       	dec	r24
    221e:	f1 f7       	brne	.-4      	; 0x221c <FLASH_Write_Enable+0x8>
    2220:	00 c0       	rjmp	.+0      	; 0x2222 <FLASH_Write_Enable+0xe>
	
	_delay_us(5); //change delay if it doesn't work....
	
	SPDR = WRITE_ENABLED; //Flash NAND's Write Enable command into SPI Data Register (SPDR)
    2222:	86 e0       	ldi	r24, 0x06	; 6
    2224:	8e bd       	out	0x2e, r24	; 46
	while(!(SPSR & (1 << SPIF))); //waiting until serial transfer is complete; waits for SPIF to be logic high
    2226:	0d b4       	in	r0, 0x2d	; 45
    2228:	07 fe       	sbrs	r0, 7
    222a:	fd cf       	rjmp	.-6      	; 0x2226 <FLASH_Write_Enable+0x12>
	status = SPDR; //makes sure to clear the SPIF flag in the 2560, useless byte
    222c:	8e b5       	in	r24, 0x2e	; 46
    222e:	80 93 27 04 	sts	0x0427, r24	; 0x800427 <status>
	
	PORTA |= (1 << PA3); //~CS pin set high for de-selecting slave device; to end the command sequence
    2232:	82 b1       	in	r24, 0x02	; 2
    2234:	88 60       	ori	r24, 0x08	; 8
    2236:	82 b9       	out	0x02, r24	; 2
    2238:	8a e1       	ldi	r24, 0x1A	; 26
    223a:	8a 95       	dec	r24
    223c:	f1 f7       	brne	.-4      	; 0x223a <FLASH_Write_Enable+0x26>
    223e:	00 c0       	rjmp	.+0      	; 0x2240 <FLASH_Write_Enable+0x2c>
	
	_delay_us(5); //change delay if it doesn't work....
	
	FLASH_Status();
    2240:	0e 94 08 0c 	call	0x1810	; 0x1810 <FLASH_Status>

	//sprintf(buffer, "Write Enable: Status (0x%02X) \n", HEX_ID[0]); //hex data to string
	USART_Data("Write Enable \n");
    2244:	60 ee       	ldi	r22, 0xE0	; 224
    2246:	71 e0       	ldi	r23, 0x01	; 1
    2248:	80 e0       	ldi	r24, 0x00	; 0
    224a:	0e 94 7a 10 	call	0x20f4	; 0x20f4 <USART_Data>
    224e:	8a e1       	ldi	r24, 0x1A	; 26
    2250:	8a 95       	dec	r24
    2252:	f1 f7       	brne	.-4      	; 0x2250 <FLASH_Write_Enable+0x3c>
    2254:	00 c0       	rjmp	.+0      	; 0x2256 <FLASH_Write_Enable+0x42>
    2256:	08 95       	ret

Disassembly of section .text.FLASH_Write_Disable:

00002258 <FLASH_Write_Disable>:
	_delay_us(5); //change delay if it doesn't work....
}

void FLASH_Write_Disable(void) //de-select Slave device and disable Write operations onto Flash NAND
{
	PORTA &= ~(1 << PA3); //~CS pin set low for selecting slave device
    2258:	82 b1       	in	r24, 0x02	; 2
    225a:	87 7f       	andi	r24, 0xF7	; 247
    225c:	82 b9       	out	0x02, r24	; 2
    225e:	8a e1       	ldi	r24, 0x1A	; 26
    2260:	8a 95       	dec	r24
    2262:	f1 f7       	brne	.-4      	; 0x2260 <FLASH_Write_Disable+0x8>
    2264:	00 c0       	rjmp	.+0      	; 0x2266 <FLASH_Write_Disable+0xe>
	
	_delay_us(5); //change delay if it doesn't work....
	
	SPDR = WRITE_DISABLED; //Flash NAND's Write Disable command into SPI Data Register (SPDR)
    2266:	84 e0       	ldi	r24, 0x04	; 4
    2268:	8e bd       	out	0x2e, r24	; 46
	while(!(SPSR & (1 << SPIF))); //waiting until serial transfer is complete
    226a:	0d b4       	in	r0, 0x2d	; 45
    226c:	07 fe       	sbrs	r0, 7
    226e:	fd cf       	rjmp	.-6      	; 0x226a <FLASH_Write_Disable+0x12>
	status = SPDR; //makes sure to clear the SPIF flag in the 2560, useless byte
    2270:	8e b5       	in	r24, 0x2e	; 46
    2272:	80 93 27 04 	sts	0x0427, r24	; 0x800427 <status>
	
	PORTA |= (1 << PA3); //~CS pin set high for de-selecting slave device; to end the command sequence
    2276:	82 b1       	in	r24, 0x02	; 2
    2278:	88 60       	ori	r24, 0x08	; 8
    227a:	82 b9       	out	0x02, r24	; 2
    227c:	8a e1       	ldi	r24, 0x1A	; 26
    227e:	8a 95       	dec	r24
    2280:	f1 f7       	brne	.-4      	; 0x227e <FLASH_Write_Disable+0x26>
    2282:	00 c0       	rjmp	.+0      	; 0x2284 <FLASH_Write_Disable+0x2c>
	
	_delay_us(5); //change delay if it doesn't work....
	
	FLASH_Status();
    2284:	0e 94 08 0c 	call	0x1810	; 0x1810 <FLASH_Status>
	
	//sprintf(status_feature, "Write Disable: Status (0x%02X) \n", HEX_ID[0]); //hex data to string
	USART_Data("Write Disable \n");
    2288:	6f ee       	ldi	r22, 0xEF	; 239
    228a:	71 e0       	ldi	r23, 0x01	; 1
    228c:	80 e0       	ldi	r24, 0x00	; 0
    228e:	0e 94 7a 10 	call	0x20f4	; 0x20f4 <USART_Data>
    2292:	8a e1       	ldi	r24, 0x1A	; 26
    2294:	8a 95       	dec	r24
    2296:	f1 f7       	brne	.-4      	; 0x2294 <FLASH_Write_Disable+0x3c>
    2298:	00 c0       	rjmp	.+0      	; 0x229a <FLASH_Write_Disable+0x42>
    229a:	08 95       	ret

Disassembly of section .text.FLASH_Transfer_Cache:

00002140 <FLASH_Transfer_Cache>:
	FLASH_Transfer_Cache();	
}

void FLASH_Transfer_Cache(void) //new command to transfer data from cache to main array
{	
	PORTA &= ~(1 << PA3); //~CS pin set low for selecting slave device
    2140:	82 b1       	in	r24, 0x02	; 2
    2142:	87 7f       	andi	r24, 0xF7	; 247
    2144:	82 b9       	out	0x02, r24	; 2
    2146:	8a e1       	ldi	r24, 0x1A	; 26
    2148:	8a 95       	dec	r24
    214a:	f1 f7       	brne	.-4      	; 0x2148 <FLASH_Transfer_Cache+0x8>
    214c:	00 c0       	rjmp	.+0      	; 0x214e <FLASH_Transfer_Cache+0xe>
	
	_delay_us(5); //change delay if it doesn't work....
	
	//code below sends Program_Execute command with the starting address of the main array
	SPDR = PROGRAM_EXECUTE; //Sending Program Execute Command into SPI Data Register (SPDR)
    214e:	80 e1       	ldi	r24, 0x10	; 16
    2150:	8e bd       	out	0x2e, r24	; 46
	while (!(SPSR & (1 << SPIF))); 
    2152:	0d b4       	in	r0, 0x2d	; 45
    2154:	07 fe       	sbrs	r0, 7
    2156:	fd cf       	rjmp	.-6      	; 0x2152 <FLASH_Transfer_Cache+0x12>
	status = SPDR; //makes sure to clear the SPIF flag in the 2560, useless byte
    2158:	8e b5       	in	r24, 0x2e	; 46
    215a:	80 93 27 04 	sts	0x0427, r24	; 0x800427 <status>
	
	FLASH_MainArray_Address(s); //determines where to write data to in MainArray
    215e:	80 91 25 04 	lds	r24, 0x0425	; 0x800425 <s>
    2162:	90 91 26 04 	lds	r25, 0x0426	; 0x800426 <s+0x1>
    2166:	0e 94 fa 0f 	call	0x1ff4	; 0x1ff4 <FLASH_MainArray_Address>
	
	PORTA |= (1 << PA3); //~CS pin set high for de-selecting slave device; to end the command sequence
    216a:	82 b1       	in	r24, 0x02	; 2
    216c:	88 60       	ori	r24, 0x08	; 8
    216e:	82 b9       	out	0x02, r24	; 2
	
	//sprintf(status_feature, "Program Execute: Status (0x%02X) High-Byte (0x%02X) Mid-Byte (0x%02X) Low-Byte (0x%02X) \n", HEX_ID[0], HEX_ID[1], HEX_ID[2],  HEX_ID[3]); //hex data to string
	USART_Data("Program Execute \n");
    2170:	6f ef       	ldi	r22, 0xFF	; 255
    2172:	71 e0       	ldi	r23, 0x01	; 1
    2174:	80 e0       	ldi	r24, 0x00	; 0
    2176:	0e 94 7a 10 	call	0x20f4	; 0x20f4 <USART_Data>
    217a:	8a e1       	ldi	r24, 0x1A	; 26
    217c:	8a 95       	dec	r24
    217e:	f1 f7       	brne	.-4      	; 0x217c <FLASH_Transfer_Cache+0x3c>
    2180:	00 c0       	rjmp	.+0      	; 0x2182 <FLASH_Transfer_Cache+0x42>
	
	_delay_us(5); //change delay if it doesn't work....
	
	FLASH_Status(); //checks for the status of data transfer from cache to main array from program_execute command
    2182:	0e 94 08 0c 	call	0x1810	; 0x1810 <FLASH_Status>

	FLASH_Write_Disable();
    2186:	0e 94 2c 11 	call	0x2258	; 0x2258 <FLASH_Write_Disable>
    218a:	08 95       	ret

Disassembly of section .text.FLASH_Write_Data:

00001cf6 <FLASH_Write_Data>:
	
	_delay_us(5); //change delay if it doesn't work....
}

void FLASH_Write_Data() //const char *str) //writes String data via the addressed individual characters into Flash_NAND (SPI protocol)
{
    1cf6:	cf 93       	push	r28
    1cf8:	df 93       	push	r29
	FLASH_Write_Enable();
    1cfa:	0e 94 0a 11 	call	0x2214	; 0x2214 <FLASH_Write_Enable>
	
	//code below sends Program_Load command with the starting address of the cache register
	PORTA &= ~(1 << PA3); //~CS pin set low for selecting slave device
    1cfe:	82 b1       	in	r24, 0x02	; 2
    1d00:	87 7f       	andi	r24, 0xF7	; 247
    1d02:	82 b9       	out	0x02, r24	; 2
    1d04:	8a e1       	ldi	r24, 0x1A	; 26
    1d06:	8a 95       	dec	r24
    1d08:	f1 f7       	brne	.-4      	; 0x1d06 <FLASH_Write_Data+0x10>
    1d0a:	00 c0       	rjmp	.+0      	; 0x1d0c <FLASH_Write_Data+0x16>
	
	_delay_us(5); //change delay if it doesn't work....
	
	SPDR = PROGRAM_LOAD; //Sending Program_Load Command into SPI Data Register (SPDR)
    1d0c:	82 e0       	ldi	r24, 0x02	; 2
    1d0e:	8e bd       	out	0x2e, r24	; 46
	while(!(SPSR & (1 << SPIF)));
    1d10:	0d b4       	in	r0, 0x2d	; 45
    1d12:	07 fe       	sbrs	r0, 7
    1d14:	fd cf       	rjmp	.-6      	; 0x1d10 <FLASH_Write_Data+0x1a>
	status = SPDR; //makes sure to clear the SPIF flag in the 2560, useless byte
    1d16:	8e b5       	in	r24, 0x2e	; 46
    1d18:	80 93 27 04 	sts	0x0427, r24	; 0x800427 <status>
	
	FLASH_Cache_Address(s); //determines where to write data to in Cache
    1d1c:	80 91 25 04 	lds	r24, 0x0425	; 0x800425 <s>
    1d20:	90 91 26 04 	lds	r25, 0x0426	; 0x800426 <s+0x1>
    1d24:	0e 94 e8 10 	call	0x21d0	; 0x21d0 <FLASH_Cache_Address>
	
	for (int j = 0; j < strlen(CommandBuffer); j++) //each loop, the cache address pointer is incremented after each byte is shifted out...
    1d28:	c0 e0       	ldi	r28, 0x00	; 0
    1d2a:	d0 e0       	ldi	r29, 0x00	; 0
    1d2c:	0c c0       	rjmp	.+24     	; 0x1d46 <FLASH_Write_Data+0x50>
	{
		SPDR = CommandBuffer[j]; //write char data type (byte sized) data onto cache register's address
    1d2e:	fe 01       	movw	r30, r28
    1d30:	e0 50       	subi	r30, 0x00	; 0
    1d32:	fe 4f       	sbci	r31, 0xFE	; 254
    1d34:	80 81       	ld	r24, Z
    1d36:	8e bd       	out	0x2e, r24	; 46
		while(!(SPSR & (1 << SPIF))); //waiting until serial transfer is complete
    1d38:	0d b4       	in	r0, 0x2d	; 45
    1d3a:	07 fe       	sbrs	r0, 7
    1d3c:	fd cf       	rjmp	.-6      	; 0x1d38 <FLASH_Write_Data+0x42>
		status = SPDR; //makes sure to clear the SPIF flag in the 2560, useless byte
    1d3e:	8e b5       	in	r24, 0x2e	; 46
    1d40:	80 93 27 04 	sts	0x0427, r24	; 0x800427 <status>
	while(!(SPSR & (1 << SPIF)));
	status = SPDR; //makes sure to clear the SPIF flag in the 2560, useless byte
	
	FLASH_Cache_Address(s); //determines where to write data to in Cache
	
	for (int j = 0; j < strlen(CommandBuffer); j++) //each loop, the cache address pointer is incremented after each byte is shifted out...
    1d44:	21 96       	adiw	r28, 0x01	; 1
    1d46:	60 e0       	ldi	r22, 0x00	; 0
    1d48:	72 e0       	ldi	r23, 0x02	; 2
    1d4a:	80 e8       	ldi	r24, 0x80	; 128
    1d4c:	0e 94 8a 12 	call	0x2514	; 0x2514 <strlen>
    1d50:	c8 17       	cp	r28, r24
    1d52:	d9 07       	cpc	r29, r25
    1d54:	60 f3       	brcs	.-40     	; 0x1d2e <FLASH_Write_Data+0x38>
		
		//USART_TX_Data(write_test[i]);
	}
	*/
	
	PORTA |= (1 << PA3); //~CS pin set high for de-selecting slave device; to end the command sequence
    1d56:	82 b1       	in	r24, 0x02	; 2
    1d58:	88 60       	ori	r24, 0x08	; 8
    1d5a:	82 b9       	out	0x02, r24	; 2

	//sprintf(status_feature, "Program Load: Status (0x%02X) High-Byte (0x%02X) Low-Byte (0x%02X) \n", HEX_ID[0], HEX_ID[1], HEX_ID[2]); //hex data to string
	USART_Data("Program Load \n");
    1d5c:	61 e1       	ldi	r22, 0x11	; 17
    1d5e:	72 e0       	ldi	r23, 0x02	; 2
    1d60:	80 e0       	ldi	r24, 0x00	; 0
    1d62:	0e 94 7a 10 	call	0x20f4	; 0x20f4 <USART_Data>
    1d66:	8a e1       	ldi	r24, 0x1A	; 26
    1d68:	8a 95       	dec	r24
    1d6a:	f1 f7       	brne	.-4      	; 0x1d68 <FLASH_Write_Data+0x72>
    1d6c:	00 c0       	rjmp	.+0      	; 0x1d6e <FLASH_Write_Data+0x78>
	
	_delay_us(5); //change delay if it doesn't work....

	FLASH_Transfer_Cache();	
    1d6e:	0e 94 a0 10 	call	0x2140	; 0x2140 <FLASH_Transfer_Cache>
}
    1d72:	df 91       	pop	r29
    1d74:	cf 91       	pop	r28
    1d76:	08 95       	ret

Disassembly of section .text.FLASH_Transfer_MainArray:

00002054 <FLASH_Transfer_MainArray>:
	_delay_us(5); //change delay if it doesn't work....
}

void FLASH_Transfer_MainArray(void) //new command to transfer data from main array to cache
{
	PORTA &= ~(1 << PA3); //~CS pin set low for selecting slave device
    2054:	82 b1       	in	r24, 0x02	; 2
    2056:	87 7f       	andi	r24, 0xF7	; 247
    2058:	82 b9       	out	0x02, r24	; 2
    205a:	8a e1       	ldi	r24, 0x1A	; 26
    205c:	8a 95       	dec	r24
    205e:	f1 f7       	brne	.-4      	; 0x205c <FLASH_Transfer_MainArray+0x8>
    2060:	00 c0       	rjmp	.+0      	; 0x2062 <FLASH_Transfer_MainArray+0xe>
	
	_delay_us(5); //change delay if it doesn't work....
	
	SPDR = PAGE_READ; //Sending Page_Read Command into SPI Data Register (SPDR)
    2062:	83 e1       	ldi	r24, 0x13	; 19
    2064:	8e bd       	out	0x2e, r24	; 46
	while(!(SPSR & (1 << SPIF))); //waiting until serial transfer is complete
    2066:	0d b4       	in	r0, 0x2d	; 45
    2068:	07 fe       	sbrs	r0, 7
    206a:	fd cf       	rjmp	.-6      	; 0x2066 <FLASH_Transfer_MainArray+0x12>
	status = SPDR; //makes sure to clear the SPIF flag in the 2560, useless byte
    206c:	8e b5       	in	r24, 0x2e	; 46
    206e:	80 93 27 04 	sts	0x0427, r24	; 0x800427 <status>
	
	FLASH_MainArray_Address(s); //determines where to read data to in MainArray
    2072:	80 91 25 04 	lds	r24, 0x0425	; 0x800425 <s>
    2076:	90 91 26 04 	lds	r25, 0x0426	; 0x800426 <s+0x1>
    207a:	0e 94 fa 0f 	call	0x1ff4	; 0x1ff4 <FLASH_MainArray_Address>
	
	PORTA |= (1 << PA3); //~CS pin set high for de-selecting slave device; to end the command sequence
    207e:	82 b1       	in	r24, 0x02	; 2
    2080:	88 60       	ori	r24, 0x08	; 8
    2082:	82 b9       	out	0x02, r24	; 2
    2084:	8a e1       	ldi	r24, 0x1A	; 26
    2086:	8a 95       	dec	r24
    2088:	f1 f7       	brne	.-4      	; 0x2086 <FLASH_Transfer_MainArray+0x32>
    208a:	00 c0       	rjmp	.+0      	; 0x208c <FLASH_Transfer_MainArray+0x38>
	
	_delay_us(5); //change delay if it doesn't work....
	
	FLASH_Status(); //checks for the status of data transfer from main array to cache from page_read command
    208c:	0e 94 08 0c 	call	0x1810	; 0x1810 <FLASH_Status>
	
	//sprintf(status_feature, "Page Read: Status (0x%02X) High-Byte (0x%02X) Mid-Byte (0x%02X) Low-Byte (0x%02X) \n", HEX_ID[0], HEX_ID[1], HEX_ID[2],  HEX_ID[3]); //hex data to string
	USART_Data("Page Read \n");
    2090:	60 e2       	ldi	r22, 0x20	; 32
    2092:	72 e0       	ldi	r23, 0x02	; 2
    2094:	80 e0       	ldi	r24, 0x00	; 0
    2096:	0e 94 7a 10 	call	0x20f4	; 0x20f4 <USART_Data>
    209a:	8a e1       	ldi	r24, 0x1A	; 26
    209c:	8a 95       	dec	r24
    209e:	f1 f7       	brne	.-4      	; 0x209c <FLASH_Transfer_MainArray+0x48>
    20a0:	00 c0       	rjmp	.+0      	; 0x20a2 <FLASH_Transfer_MainArray+0x4e>
    20a2:	08 95       	ret

Disassembly of section .text.FLASH_Erase:

000020a4 <FLASH_Erase>:
	_delay_us(5); //change delay if it doesn't work....
}

void FLASH_Erase() //erases data from Flash Nand Memory at the block level
{
	FLASH_Write_Enable();
    20a4:	0e 94 0a 11 	call	0x2214	; 0x2214 <FLASH_Write_Enable>
	
	PORTA &= ~(1 << PA3); //~CS pin set low for selecting slave device
    20a8:	82 b1       	in	r24, 0x02	; 2
    20aa:	87 7f       	andi	r24, 0xF7	; 247
    20ac:	82 b9       	out	0x02, r24	; 2
    20ae:	8a e1       	ldi	r24, 0x1A	; 26
    20b0:	8a 95       	dec	r24
    20b2:	f1 f7       	brne	.-4      	; 0x20b0 <FLASH_Erase+0xc>
    20b4:	00 c0       	rjmp	.+0      	; 0x20b6 <FLASH_Erase+0x12>
	
	_delay_us(5); //change delay if it doesn't work....	
	
	SPDR = BLOCK_ERASE; //Sending Block_Erase Command into SPI Data Register (SPDR)
    20b6:	88 ed       	ldi	r24, 0xD8	; 216
    20b8:	8e bd       	out	0x2e, r24	; 46
	while(!(SPSR & (1 << SPIF))); //waiting until serial transfer is complete
    20ba:	0d b4       	in	r0, 0x2d	; 45
    20bc:	07 fe       	sbrs	r0, 7
    20be:	fd cf       	rjmp	.-6      	; 0x20ba <FLASH_Erase+0x16>
	status = SPDR; //makes sure to clear the SPIF flag in the 2560, useless byte
    20c0:	8e b5       	in	r24, 0x2e	; 46
    20c2:	80 93 27 04 	sts	0x0427, r24	; 0x800427 <status>
	
	FLASH_MainArray_Address(s); //determines where to write/read data to in MainArray
    20c6:	80 91 25 04 	lds	r24, 0x0425	; 0x800425 <s>
    20ca:	90 91 26 04 	lds	r25, 0x0426	; 0x800426 <s+0x1>
    20ce:	0e 94 fa 0f 	call	0x1ff4	; 0x1ff4 <FLASH_MainArray_Address>

	PORTA |= (1 << PA3); //~CS pin set high for de-selecting slave device; to end the command sequence
    20d2:	82 b1       	in	r24, 0x02	; 2
    20d4:	88 60       	ori	r24, 0x08	; 8
    20d6:	82 b9       	out	0x02, r24	; 2

	//sprintf(status_feature, "Block Erase: Status (0x%02X) High-Byte (0x%02X) Mid-Byte (0x%02X) Low-Byte (0x%02X) \n", HEX_ID[0], HEX_ID[1], HEX_ID[2], HEX_ID[3]); //hex data to string
	USART_Data("Block Erase \n");
    20d8:	6c e2       	ldi	r22, 0x2C	; 44
    20da:	72 e0       	ldi	r23, 0x02	; 2
    20dc:	80 e0       	ldi	r24, 0x00	; 0
    20de:	0e 94 7a 10 	call	0x20f4	; 0x20f4 <USART_Data>
    20e2:	8a e1       	ldi	r24, 0x1A	; 26
    20e4:	8a 95       	dec	r24
    20e6:	f1 f7       	brne	.-4      	; 0x20e4 <FLASH_Erase+0x40>
    20e8:	00 c0       	rjmp	.+0      	; 0x20ea <FLASH_Erase+0x46>
	
	_delay_us(5); //change delay if it doesn't work....
	
	FLASH_Status(); //checks for the status of data deletion on the block level from Block_Erase command
    20ea:	0e 94 08 0c 	call	0x1810	; 0x1810 <FLASH_Status>
	
	FLASH_Write_Disable();
    20ee:	0e 94 2c 11 	call	0x2258	; 0x2258 <FLASH_Write_Disable>
    20f2:	08 95       	ret

Disassembly of section .text.FLASH_Data_Storage:

00001e5c <FLASH_Data_Storage>:
	
	_delay_us(5); //change delay if it doesn't work....
}

void FLASH_Data_Storage(int s) //determines how to store FLASH NAND data in an array
{
    1e5c:	cf 93       	push	r28
    1e5e:	df 93       	push	r29
    1e60:	ec 01       	movw	r28, r24
	if (s == 0) //normal method for strings
    1e62:	89 2b       	or	r24, r25
    1e64:	a9 f0       	breq	.+42     	; 0x1e90 <FLASH_Data_Storage+0x34>
    1e66:	19 c0       	rjmp	.+50     	; 0x1e9a <FLASH_Data_Storage+0x3e>
	{
		//reading and writing char data type into data[]
		for (int i = 0; i < sizeof(data); i++) //address is incremented automatically after each byte is shifted out
		{
			SPDR = 0x00; //a dummy byte, ignored by the Flash NAND...to get data back
    1e68:	1e bc       	out	0x2e, r1	; 46
			while(!(SPSR & (1 << SPIF))); //waiting until serial transfer is complete
    1e6a:	0d b4       	in	r0, 0x2d	; 45
    1e6c:	07 fe       	sbrs	r0, 7
    1e6e:	fd cf       	rjmp	.-6      	; 0x1e6a <FLASH_Data_Storage+0xe>
			data[i] = SPDR; //read Data Register and adds it to data array
    1e70:	2e b5       	in	r18, 0x2e	; 46
    1e72:	fc 01       	movw	r30, r24
    1e74:	e3 5e       	subi	r30, 0xE3	; 227
    1e76:	fc 4f       	sbci	r31, 0xFC	; 252
    1e78:	20 83       	st	Z, r18
		
			if (SPDR == '\r') //|| SPDR == '') // is 0xFF in character data type; adding carriage return '\r' until I can get NULL to work... 
    1e7a:	2e b5       	in	r18, 0x2e	; 46
    1e7c:	2d 30       	cpi	r18, 0x0D	; 13
    1e7e:	31 f4       	brne	.+12     	; 0x1e8c <FLASH_Data_Storage+0x30>
			{
				USART_Data("Data Received \n");
    1e80:	6a e3       	ldi	r22, 0x3A	; 58
    1e82:	72 e0       	ldi	r23, 0x02	; 2
    1e84:	80 e0       	ldi	r24, 0x00	; 0
    1e86:	0e 94 7a 10 	call	0x20f4	; 0x20f4 <USART_Data>
				break;
    1e8a:	07 c0       	rjmp	.+14     	; 0x1e9a <FLASH_Data_Storage+0x3e>
void FLASH_Data_Storage(int s) //determines how to store FLASH NAND data in an array
{
	if (s == 0) //normal method for strings
	{
		//reading and writing char data type into data[]
		for (int i = 0; i < sizeof(data); i++) //address is incremented automatically after each byte is shifted out
    1e8c:	01 96       	adiw	r24, 0x01	; 1
    1e8e:	02 c0       	rjmp	.+4      	; 0x1e94 <FLASH_Data_Storage+0x38>
    1e90:	80 e0       	ldi	r24, 0x00	; 0
    1e92:	90 e0       	ldi	r25, 0x00	; 0
    1e94:	8e 3f       	cpi	r24, 0xFE	; 254
    1e96:	91 05       	cpc	r25, r1
    1e98:	38 f3       	brcs	.-50     	; 0x1e68 <FLASH_Data_Storage+0xc>
				break;
			}
		}
	}
	
	if (s == 1) //parameter page requires this
    1e9a:	21 97       	sbiw	r28, 0x01	; 1
    1e9c:	89 f4       	brne	.+34     	; 0x1ec0 <FLASH_Data_Storage+0x64>
    1e9e:	0b c0       	rjmp	.+22     	; 0x1eb6 <FLASH_Data_Storage+0x5a>
	{
		//reading and writing char data type into data[]
		for (int i = 0; i < sizeof(data); i++) //address is incremented automatically after each byte is shifted out
		{
			SPDR = 0x00; //a dummy byte, ignored by the Flash NAND...to get data back
    1ea0:	1e bc       	out	0x2e, r1	; 46
			while(!(SPSR & (1 << SPIF))); //waiting until serial transfer is complete
    1ea2:	0d b4       	in	r0, 0x2d	; 45
    1ea4:	07 fe       	sbrs	r0, 7
    1ea6:	fd cf       	rjmp	.-6      	; 0x1ea2 <FLASH_Data_Storage+0x46>
			data[i] = SPDR; //read Data Register and adds it to data array
    1ea8:	2e b5       	in	r18, 0x2e	; 46
    1eaa:	fc 01       	movw	r30, r24
    1eac:	e3 5e       	subi	r30, 0xE3	; 227
    1eae:	fc 4f       	sbci	r31, 0xFC	; 252
    1eb0:	20 83       	st	Z, r18
	}
	
	if (s == 1) //parameter page requires this
	{
		//reading and writing char data type into data[]
		for (int i = 0; i < sizeof(data); i++) //address is incremented automatically after each byte is shifted out
    1eb2:	01 96       	adiw	r24, 0x01	; 1
    1eb4:	02 c0       	rjmp	.+4      	; 0x1eba <FLASH_Data_Storage+0x5e>
    1eb6:	80 e0       	ldi	r24, 0x00	; 0
    1eb8:	90 e0       	ldi	r25, 0x00	; 0
    1eba:	8e 3f       	cpi	r24, 0xFE	; 254
    1ebc:	91 05       	cpc	r25, r1
    1ebe:	80 f3       	brcs	.-32     	; 0x1ea0 <FLASH_Data_Storage+0x44>
			SPDR = 0x00; //a dummy byte, ignored by the Flash NAND...to get data back
			while(!(SPSR & (1 << SPIF))); //waiting until serial transfer is complete
			data[i] = SPDR; //read Data Register and adds it to data array
		}
	}
    1ec0:	df 91       	pop	r29
    1ec2:	cf 91       	pop	r28
    1ec4:	08 95       	ret

Disassembly of section .text.FLASH_Read:

00001f92 <FLASH_Read>:
	FLASH_Write_Disable();
}

void FLASH_Read() //reads data from FLASH_NAND Memory chip (SPI protocol)
{
	FLASH_Transfer_MainArray();
    1f92:	0e 94 2a 10 	call	0x2054	; 0x2054 <FLASH_Transfer_MainArray>
	
	PORTA &= ~(1 << PA3); //~CS pin set low for selecting slave device
    1f96:	82 b1       	in	r24, 0x02	; 2
    1f98:	87 7f       	andi	r24, 0xF7	; 247
    1f9a:	82 b9       	out	0x02, r24	; 2
    1f9c:	8a e1       	ldi	r24, 0x1A	; 26
    1f9e:	8a 95       	dec	r24
    1fa0:	f1 f7       	brne	.-4      	; 0x1f9e <FLASH_Read+0xc>
    1fa2:	00 c0       	rjmp	.+0      	; 0x1fa4 <FLASH_Read+0x12>
	
	_delay_us(5); //change delay if it doesn't work....
	
	SPDR = READ_FROM_CACHE; //Sending Read_From_Cache Command into SPI Data Register (SPDR)
    1fa4:	8b e0       	ldi	r24, 0x0B	; 11
    1fa6:	8e bd       	out	0x2e, r24	; 46
	while(!(SPSR & (1 << SPIF))); //waiting until serial transfer is complete
    1fa8:	0d b4       	in	r0, 0x2d	; 45
    1faa:	07 fe       	sbrs	r0, 7
    1fac:	fd cf       	rjmp	.-6      	; 0x1fa8 <FLASH_Read+0x16>
	status = SPDR; //makes sure to clear the SPIF flag in the 2560, useless byte
    1fae:	8e b5       	in	r24, 0x2e	; 46
    1fb0:	80 93 27 04 	sts	0x0427, r24	; 0x800427 <status>
	
	FLASH_Cache_Address(s); //determines where to read data from in Cache
    1fb4:	80 91 25 04 	lds	r24, 0x0425	; 0x800425 <s>
    1fb8:	90 91 26 04 	lds	r25, 0x0426	; 0x800426 <s+0x1>
    1fbc:	0e 94 e8 10 	call	0x21d0	; 0x21d0 <FLASH_Cache_Address>
	
	SPDR = 0x00; //a dummy byte sent
    1fc0:	1e bc       	out	0x2e, r1	; 46
	while(!(SPSR & (1 << SPIF))); //waiting until serial transfer is complete
    1fc2:	0d b4       	in	r0, 0x2d	; 45
    1fc4:	07 fe       	sbrs	r0, 7
    1fc6:	fd cf       	rjmp	.-6      	; 0x1fc2 <FLASH_Read+0x30>
	status = SPDR; //makes sure to clear the SPIF flag in the 2560, useless byte
    1fc8:	8e b5       	in	r24, 0x2e	; 46
    1fca:	80 93 27 04 	sts	0x0427, r24	; 0x800427 <status>
	
	FLASH_Data_Storage(s); //determines how to store data in an array
    1fce:	80 91 25 04 	lds	r24, 0x0425	; 0x800425 <s>
    1fd2:	90 91 26 04 	lds	r25, 0x0426	; 0x800426 <s+0x1>
    1fd6:	0e 94 2e 0f 	call	0x1e5c	; 0x1e5c <FLASH_Data_Storage>
	
	PORTA |= (1 << PA3); //~CS pin set high for de-selecting slave device; to end the command sequence
    1fda:	82 b1       	in	r24, 0x02	; 2
    1fdc:	88 60       	ori	r24, 0x08	; 8
    1fde:	82 b9       	out	0x02, r24	; 2
	
	//sprintf(status_feature, "Read From Cache: Status (0x%02X) High-Byte (0x%02X) Low-Byte (0x%02X) Dummy (0x%02X) \n", HEX_ID[0], HEX_ID[1], HEX_ID[2], HEX_ID[3]); //hex data to string
	USART_Data("Read from Cache: \n");
    1fe0:	6a e4       	ldi	r22, 0x4A	; 74
    1fe2:	72 e0       	ldi	r23, 0x02	; 2
    1fe4:	80 e0       	ldi	r24, 0x00	; 0
    1fe6:	0e 94 7a 10 	call	0x20f4	; 0x20f4 <USART_Data>
    1fea:	8a e1       	ldi	r24, 0x1A	; 26
    1fec:	8a 95       	dec	r24
    1fee:	f1 f7       	brne	.-4      	; 0x1fec <FLASH_Read+0x5a>
    1ff0:	00 c0       	rjmp	.+0      	; 0x1ff2 <FLASH_Read+0x60>
    1ff2:	08 95       	ret

Disassembly of section .text.FLASH_Para_Pg:

00001d78 <FLASH_Para_Pg>:
	USART_Data("Device Reseted \n");
}

void FLASH_Para_Pg() //reads from the FLASH NAND parameter page
{
	PORTA &= ~(1 << PA3); //~CS pin set low for selecting slave device
    1d78:	82 b1       	in	r24, 0x02	; 2
    1d7a:	87 7f       	andi	r24, 0xF7	; 247
    1d7c:	82 b9       	out	0x02, r24	; 2
    1d7e:	8a e1       	ldi	r24, 0x1A	; 26
    1d80:	8a 95       	dec	r24
    1d82:	f1 f7       	brne	.-4      	; 0x1d80 <FLASH_Para_Pg+0x8>
    1d84:	00 c0       	rjmp	.+0      	; 0x1d86 <FLASH_Para_Pg+0xe>
	
	_delay_us(5); //change delay if it doesn't work....
	
	SPDR = SET_FEATURES; //Sending Set_Features Command into SPI Data Register (SPDR)
    1d86:	8f e1       	ldi	r24, 0x1F	; 31
    1d88:	8e bd       	out	0x2e, r24	; 46
	while(!(SPSR & (1 << SPIF))); //waiting until serial transfer is complete
    1d8a:	0d b4       	in	r0, 0x2d	; 45
    1d8c:	07 fe       	sbrs	r0, 7
    1d8e:	fd cf       	rjmp	.-6      	; 0x1d8a <FLASH_Para_Pg+0x12>
	//HEX_ID [0] = SPDR; //no need to read because the while loop's purpose is to make sure the SPIF flag clears; useless byte

	SPDR = CONFIGURATION_REGISTER_ADDRESS; //Sending Set_Features Command into SPI Data Register (SPDR)
    1d90:	80 eb       	ldi	r24, 0xB0	; 176
    1d92:	8e bd       	out	0x2e, r24	; 46
	while(!(SPSR & (1 << SPIF))); //waiting until serial transfer is complete
    1d94:	0d b4       	in	r0, 0x2d	; 45
    1d96:	07 fe       	sbrs	r0, 7
    1d98:	fd cf       	rjmp	.-6      	; 0x1d94 <FLASH_Para_Pg+0x1c>
	//HEX_ID [1] = SPDR; //no need to read because the while loop's purpose is to make sure the SPIF flag clears; useless byte

	SPDR = PARAMETER_PAGE_INIT; //Sending data byte, setting CFG1 = 1 (access Parameter page), into SPI Data Register (SPDR)
    1d9a:	80 e4       	ldi	r24, 0x40	; 64
    1d9c:	8e bd       	out	0x2e, r24	; 46
	while(!(SPSR & (1 << SPIF))); //waiting until serial transfer is complete
    1d9e:	0d b4       	in	r0, 0x2d	; 45
    1da0:	07 fe       	sbrs	r0, 7
    1da2:	fd cf       	rjmp	.-6      	; 0x1d9e <FLASH_Para_Pg+0x26>
	//HEX_ID [1] = SPDR; //no need to read because the while loop's purpose is to make sure the SPIF flag clears; useless byte
	
	PORTA |= (1 << PA3); //~CS pin set high for de-selecting slave device; to end the command sequence
    1da4:	82 b1       	in	r24, 0x02	; 2
    1da6:	88 60       	ori	r24, 0x08	; 8
    1da8:	82 b9       	out	0x02, r24	; 2
    1daa:	8a e1       	ldi	r24, 0x1A	; 26
    1dac:	8a 95       	dec	r24
    1dae:	f1 f7       	brne	.-4      	; 0x1dac <FLASH_Para_Pg+0x34>
    1db0:	00 c0       	rjmp	.+0      	; 0x1db2 <FLASH_Para_Pg+0x3a>
	
	_delay_us(5); //change delay if it doesn't work....
	
	//THIS is a PAGE READ FUNCTION....
	FLASH_Read(); //changed plane bit and low byte from 24-bit address
    1db2:	0e 94 c9 0f 	call	0x1f92	; 0x1f92 <FLASH_Read>

	PORTA &= ~(1 << PA3); //~CS pin set low for selecting slave device
    1db6:	82 b1       	in	r24, 0x02	; 2
    1db8:	87 7f       	andi	r24, 0xF7	; 247
    1dba:	82 b9       	out	0x02, r24	; 2
    1dbc:	8a e1       	ldi	r24, 0x1A	; 26
    1dbe:	8a 95       	dec	r24
    1dc0:	f1 f7       	brne	.-4      	; 0x1dbe <FLASH_Para_Pg+0x46>
    1dc2:	00 c0       	rjmp	.+0      	; 0x1dc4 <FLASH_Para_Pg+0x4c>
	
	_delay_us(5); //change delay if it doesn't work....
	
	SPDR = SET_FEATURES; //Sending Set_Features Command into SPI Data Register (SPDR)
    1dc4:	8f e1       	ldi	r24, 0x1F	; 31
    1dc6:	8e bd       	out	0x2e, r24	; 46
	while(!(SPSR & (1 << SPIF))); //waiting until serial transfer is complete
    1dc8:	0d b4       	in	r0, 0x2d	; 45
    1dca:	07 fe       	sbrs	r0, 7
    1dcc:	fd cf       	rjmp	.-6      	; 0x1dc8 <FLASH_Para_Pg+0x50>
	//HEX_ID [0] = SPDR; //no need to read because the while loop's purpose is to make sure the SPIF flag clears; useless byte

	SPDR = CONFIGURATION_REGISTER_ADDRESS; //Sending Set_Features Command into SPI Data Register (SPDR)
    1dce:	80 eb       	ldi	r24, 0xB0	; 176
    1dd0:	8e bd       	out	0x2e, r24	; 46
	while(!(SPSR & (1 << SPIF))); //waiting until serial transfer is complete
    1dd2:	0d b4       	in	r0, 0x2d	; 45
    1dd4:	07 fe       	sbrs	r0, 7
    1dd6:	fd cf       	rjmp	.-6      	; 0x1dd2 <FLASH_Para_Pg+0x5a>
	//HEX_ID [1] = SPDR; //no need to read because the while loop's purpose is to make sure the SPIF flag clears; useless byte

	SPDR = PARAMETER_PAGE_EXIT; //Sending data byte to exit Parameter page into SPI Data Register (SPDR)
    1dd8:	1e bc       	out	0x2e, r1	; 46
	while(!(SPSR & (1 << SPIF))); //waiting until serial transfer is complete
    1dda:	0d b4       	in	r0, 0x2d	; 45
    1ddc:	07 fe       	sbrs	r0, 7
    1dde:	fd cf       	rjmp	.-6      	; 0x1dda <FLASH_Para_Pg+0x62>
	//HEX_ID [1] = SPDR; //no need to read because the while loop's purpose is to make sure the SPIF flag clears; useless byte
	
	PORTA |= (1 << PA3); //~CS pin set high for de-selecting slave device; to end the command sequence
    1de0:	82 b1       	in	r24, 0x02	; 2
    1de2:	88 60       	ori	r24, 0x08	; 8
    1de4:	82 b9       	out	0x02, r24	; 2
    1de6:	8a e1       	ldi	r24, 0x1A	; 26
    1de8:	8a 95       	dec	r24
    1dea:	f1 f7       	brne	.-4      	; 0x1de8 <FLASH_Para_Pg+0x70>
    1dec:	00 c0       	rjmp	.+0      	; 0x1dee <FLASH_Para_Pg+0x76>
    1dee:	08 95       	ret

Disassembly of section .text.libgcc:

00002658 <__xload_1>:
    2658:	57 fd       	sbrc	r21, 7
    265a:	03 c0       	rjmp	.+6      	; 0x2662 <__xload_1+0xa>
    265c:	5b bf       	out	0x3b, r21	; 59
    265e:	67 91       	elpm	r22, Z+
    2660:	08 95       	ret
    2662:	60 81       	ld	r22, Z
    2664:	08 95       	ret

Disassembly of section .text.__dummy_fini:

00002674 <_fini>:
    2674:	08 95       	ret

Disassembly of section .text.__dummy_funcs_on_exit:

00002676 <__funcs_on_exit>:
    2676:	08 95       	ret

Disassembly of section .text.__dummy_simulator_exit:

00002678 <__simulator_exit>:
    2678:	08 95       	ret

Disassembly of section .text.exit:

000025d6 <exit>:
    25d6:	ec 01       	movw	r28, r24
    25d8:	0e 94 3b 13 	call	0x2676	; 0x2676 <__funcs_on_exit>
    25dc:	0e 94 3a 13 	call	0x2674	; 0x2674 <_fini>
    25e0:	ce 01       	movw	r24, r28
    25e2:	0e 94 3c 13 	call	0x2678	; 0x2678 <__simulator_exit>
    25e6:	ce 01       	movw	r24, r28
    25e8:	0e 94 38 13 	call	0x2670	; 0x2670 <_Exit>

Disassembly of section .text.__wrap_sprintf:

000024ca <_sprintf_cdnopuxX>:
    24ca:	a0 e0       	ldi	r26, 0x00	; 0
    24cc:	b0 e0       	ldi	r27, 0x00	; 0
    24ce:	eb e6       	ldi	r30, 0x6B	; 107
    24d0:	f2 e1       	ldi	r31, 0x12	; 18
    24d2:	0c 94 df 11 	jmp	0x23be	; 0x23be <__prologue_saves__+0x20>
    24d6:	9e 01       	movw	r18, r28
    24d8:	25 5f       	subi	r18, 0xF5	; 245
    24da:	3f 4f       	sbci	r19, 0xFF	; 255
    24dc:	48 85       	ldd	r20, Y+8	; 0x08
    24de:	59 85       	ldd	r21, Y+9	; 0x09
    24e0:	6a 85       	ldd	r22, Y+10	; 0x0a
    24e2:	8e 81       	ldd	r24, Y+6	; 0x06
    24e4:	9f 81       	ldd	r25, Y+7	; 0x07
    24e6:	0e 94 c8 12 	call	0x2590	; 0x2590 <__vsprintf>
    24ea:	e2 e0       	ldi	r30, 0x02	; 2
    24ec:	0c 94 16 12 	jmp	0x242c	; 0x242c <__epilogue_restores__+0x20>

Disassembly of section .text.__fmt_s:

00001696 <__fmt_s>:
    1696:	2f 92       	push	r2
    1698:	3f 92       	push	r3
    169a:	4f 92       	push	r4
    169c:	6f 92       	push	r6
    169e:	7f 92       	push	r7
    16a0:	8f 92       	push	r8
    16a2:	af 92       	push	r10
    16a4:	bf 92       	push	r11
    16a6:	cf 92       	push	r12
    16a8:	df 92       	push	r13
    16aa:	ef 92       	push	r14
    16ac:	ff 92       	push	r15
    16ae:	0f 93       	push	r16
    16b0:	1f 93       	push	r17
    16b2:	cf 93       	push	r28
    16b4:	df 93       	push	r29
    16b6:	cd b7       	in	r28, 0x3d	; 61
    16b8:	de b7       	in	r29, 0x3e	; 62
    16ba:	27 97       	sbiw	r28, 0x07	; 7
    16bc:	0f b6       	in	r0, 0x3f	; 63
    16be:	f8 94       	cli
    16c0:	de bf       	out	0x3e, r29	; 62
    16c2:	0f be       	out	0x3f, r0	; 63
    16c4:	cd bf       	out	0x3d, r28	; 61
    16c6:	6c 01       	movw	r12, r24
    16c8:	7b 01       	movw	r14, r22
    16ca:	39 01       	movw	r6, r18
    16cc:	84 2e       	mov	r8, r20
    16ce:	98 01       	movw	r18, r16
    16d0:	8d e4       	ldi	r24, 0x4D	; 77
    16d2:	28 2e       	mov	r2, r24
    16d4:	83 e0       	ldi	r24, 0x03	; 3
    16d6:	38 2e       	mov	r3, r24
    16d8:	80 e0       	ldi	r24, 0x00	; 0
    16da:	48 2e       	mov	r4, r24
    16dc:	87 e0       	ldi	r24, 0x07	; 7
    16de:	f1 01       	movw	r30, r2
    16e0:	ae 01       	movw	r20, r28
    16e2:	4f 5f       	subi	r20, 0xFF	; 255
    16e4:	5f 4f       	sbci	r21, 0xFF	; 255
    16e6:	da 01       	movw	r26, r20
    16e8:	74 2d       	mov	r23, r4
    16ea:	0e 94 ba 12 	call	0x2574	; 0x2574 <__movmemx_qi>
    16ee:	f7 01       	movw	r30, r14
    16f0:	02 81       	ldd	r16, Z+2	; 0x02
    16f2:	13 81       	ldd	r17, Z+3	; 0x03
    16f4:	a4 80       	ldd	r10, Z+4	; 0x04
    16f6:	b5 80       	ldd	r11, Z+5	; 0x05
    16f8:	e0 80       	ld	r14, Z
    16fa:	f1 80       	ldd	r15, Z+1	; 0x01
    16fc:	61 14       	cp	r6, r1
    16fe:	71 04       	cpc	r7, r1
    1700:	81 04       	cpc	r8, r1
    1702:	19 f4       	brne	.+6      	; 0x170a <__fmt_s+0x74>
    1704:	3a 01       	movw	r6, r20
    1706:	f0 e8       	ldi	r31, 0x80	; 128
    1708:	8f 2e       	mov	r8, r31
    170a:	21 15       	cp	r18, r1
    170c:	31 05       	cpc	r19, r1
    170e:	29 f4       	brne	.+10     	; 0x171a <__fmt_s+0x84>
    1710:	88 2d       	mov	r24, r8
    1712:	b3 01       	movw	r22, r6
    1714:	0e 94 8a 12 	call	0x2514	; 0x2514 <strlen>
    1718:	9c 01       	movw	r18, r24
    171a:	17 fd       	sbrc	r17, 7
    171c:	04 c0       	rjmp	.+8      	; 0x1726 <__fmt_s+0x90>
    171e:	02 17       	cp	r16, r18
    1720:	13 07       	cpc	r17, r19
    1722:	08 f4       	brcc	.+2      	; 0x1726 <__fmt_s+0x90>
    1724:	98 01       	movw	r18, r16
    1726:	85 01       	movw	r16, r10
    1728:	68 2d       	mov	r22, r8
    172a:	a3 01       	movw	r20, r6
    172c:	c6 01       	movw	r24, r12
    172e:	0e 94 ee 09 	call	0x13dc	; 0x13dc <__pad>
    1732:	27 96       	adiw	r28, 0x07	; 7
    1734:	0f b6       	in	r0, 0x3f	; 63
    1736:	f8 94       	cli
    1738:	de bf       	out	0x3e, r29	; 62
    173a:	0f be       	out	0x3f, r0	; 63
    173c:	cd bf       	out	0x3d, r28	; 61
    173e:	df 91       	pop	r29
    1740:	cf 91       	pop	r28
    1742:	1f 91       	pop	r17
    1744:	0f 91       	pop	r16
    1746:	ff 90       	pop	r15
    1748:	ef 90       	pop	r14
    174a:	df 90       	pop	r13
    174c:	cf 90       	pop	r12
    174e:	bf 90       	pop	r11
    1750:	af 90       	pop	r10
    1752:	8f 90       	pop	r8
    1754:	7f 90       	pop	r7
    1756:	6f 90       	pop	r6
    1758:	4f 90       	pop	r4
    175a:	3f 90       	pop	r3
    175c:	2f 90       	pop	r2
    175e:	08 95       	ret

Disassembly of section .text.__out:

00001ec6 <__out>:
    1ec6:	6f 92       	push	r6
    1ec8:	7f 92       	push	r7
    1eca:	8f 92       	push	r8
    1ecc:	cf 92       	push	r12
    1ece:	df 92       	push	r13
    1ed0:	ef 92       	push	r14
    1ed2:	0f 93       	push	r16
    1ed4:	1f 93       	push	r17
    1ed6:	cf 93       	push	r28
    1ed8:	df 93       	push	r29
    1eda:	8c 01       	movw	r16, r24
    1edc:	6a 01       	movw	r12, r20
    1ede:	e6 2e       	mov	r14, r22
    1ee0:	e9 01       	movw	r28, r18
    1ee2:	3a 01       	movw	r6, r20
    1ee4:	86 2e       	mov	r8, r22
    1ee6:	62 0e       	add	r6, r18
    1ee8:	73 1e       	adc	r7, r19
    1eea:	81 1c       	adc	r8, r1
    1eec:	37 fd       	sbrc	r19, 7
    1eee:	8a 94       	dec	r8
    1ef0:	c6 14       	cp	r12, r6
    1ef2:	d7 04       	cpc	r13, r7
    1ef4:	e8 04       	cpc	r14, r8
    1ef6:	81 f0       	breq	.+32     	; 0x1f18 <__out+0x52>
    1ef8:	f6 01       	movw	r30, r12
    1efa:	5e 2d       	mov	r21, r14
    1efc:	0e 94 2c 13 	call	0x2658	; 0x2658 <__xload_1>
    1f00:	86 2f       	mov	r24, r22
    1f02:	b8 01       	movw	r22, r16
    1f04:	08 2e       	mov	r0, r24
    1f06:	00 0c       	add	r0, r0
    1f08:	99 0b       	sbc	r25, r25
    1f0a:	0e 94 ec 0d 	call	0x1bd8	; 0x1bd8 <fputc>
    1f0e:	8f ef       	ldi	r24, 0xFF	; 255
    1f10:	c8 1a       	sub	r12, r24
    1f12:	d8 0a       	sbc	r13, r24
    1f14:	e8 0a       	sbc	r14, r24
    1f16:	ec cf       	rjmp	.-40     	; 0x1ef0 <__out+0x2a>
    1f18:	ce 01       	movw	r24, r28
    1f1a:	df 91       	pop	r29
    1f1c:	cf 91       	pop	r28
    1f1e:	1f 91       	pop	r17
    1f20:	0f 91       	pop	r16
    1f22:	ef 90       	pop	r14
    1f24:	df 90       	pop	r13
    1f26:	cf 90       	pop	r12
    1f28:	8f 90       	pop	r8
    1f2a:	7f 90       	pop	r7
    1f2c:	6f 90       	pop	r6
    1f2e:	08 95       	ret

Disassembly of section .text.__pad:

000013dc <__pad>:
    13dc:	2f 92       	push	r2
    13de:	3f 92       	push	r3
    13e0:	4f 92       	push	r4
    13e2:	6f 92       	push	r6
    13e4:	7f 92       	push	r7
    13e6:	8f 92       	push	r8
    13e8:	af 92       	push	r10
    13ea:	bf 92       	push	r11
    13ec:	cf 92       	push	r12
    13ee:	df 92       	push	r13
    13f0:	ef 92       	push	r14
    13f2:	ff 92       	push	r15
    13f4:	0f 93       	push	r16
    13f6:	1f 93       	push	r17
    13f8:	cf 93       	push	r28
    13fa:	df 93       	push	r29
    13fc:	cd b7       	in	r28, 0x3d	; 61
    13fe:	de b7       	in	r29, 0x3e	; 62
    1400:	66 97       	sbiw	r28, 0x16	; 22
    1402:	0f b6       	in	r0, 0x3f	; 63
    1404:	f8 94       	cli
    1406:	de bf       	out	0x3e, r29	; 62
    1408:	0f be       	out	0x3f, r0	; 63
    140a:	cd bf       	out	0x3d, r28	; 61
    140c:	5c 01       	movw	r10, r24
    140e:	3a 01       	movw	r6, r20
    1410:	86 2e       	mov	r8, r22
    1412:	69 01       	movw	r12, r18
    1414:	c7 01       	movw	r24, r14
    1416:	81 70       	andi	r24, 0x01	; 1
    1418:	99 27       	eor	r25, r25
    141a:	9c 8b       	std	Y+20, r25	; 0x14
    141c:	8b 8b       	std	Y+19, r24	; 0x13
    141e:	e0 fc       	sbrc	r14, 0
    1420:	1d c0       	rjmp	.+58     	; 0x145c <__pad+0x80>
    1422:	20 17       	cp	r18, r16
    1424:	31 07       	cpc	r19, r17
    1426:	d4 f4       	brge	.+52     	; 0x145c <__pad+0x80>
    1428:	78 01       	movw	r14, r16
    142a:	ec 18       	sub	r14, r12
    142c:	fd 08       	sbc	r15, r13
    142e:	fe 8a       	std	Y+22, r15	; 0x16
    1430:	ed 8a       	std	Y+21, r14	; 0x15
    1432:	a7 01       	movw	r20, r14
    1434:	91 e1       	ldi	r25, 0x11	; 17
    1436:	e9 16       	cp	r14, r25
    1438:	f1 04       	cpc	r15, r1
    143a:	10 f0       	brcs	.+4      	; 0x1440 <__pad+0x64>
    143c:	40 e1       	ldi	r20, 0x10	; 16
    143e:	50 e0       	ldi	r21, 0x00	; 0
    1440:	60 e2       	ldi	r22, 0x20	; 32
    1442:	70 e0       	ldi	r23, 0x00	; 0
    1444:	ce 01       	movw	r24, r28
    1446:	01 96       	adiw	r24, 0x01	; 1
    1448:	9a 8b       	std	Y+18, r25	; 0x12
    144a:	89 8b       	std	Y+17, r24	; 0x11
    144c:	0e 94 f6 12 	call	0x25ec	; 0x25ec <memset>
    1450:	89 89       	ldd	r24, Y+17	; 0x11
    1452:	9a 89       	ldd	r25, Y+18	; 0x12
    1454:	1c 01       	movw	r2, r24
    1456:	20 e8       	ldi	r18, 0x80	; 128
    1458:	42 2e       	mov	r4, r18
    145a:	0b c0       	rjmp	.+22     	; 0x1472 <__pad+0x96>
    145c:	96 01       	movw	r18, r12
    145e:	68 2d       	mov	r22, r8
    1460:	a3 01       	movw	r20, r6
    1462:	c5 01       	movw	r24, r10
    1464:	0e 94 63 0f 	call	0x1ec6	; 0x1ec6 <__out>
    1468:	c0 16       	cp	r12, r16
    146a:	d1 06       	cpc	r13, r17
    146c:	ec f2       	brlt	.-70     	; 0x1428 <__pad+0x4c>
    146e:	c6 01       	movw	r24, r12
    1470:	25 c0       	rjmp	.+74     	; 0x14bc <__pad+0xe0>
    1472:	90 e1       	ldi	r25, 0x10	; 16
    1474:	e9 16       	cp	r14, r25
    1476:	f1 04       	cpc	r15, r1
    1478:	58 f0       	brcs	.+22     	; 0x1490 <__pad+0xb4>
    147a:	20 e1       	ldi	r18, 0x10	; 16
    147c:	30 e0       	ldi	r19, 0x00	; 0
    147e:	64 2d       	mov	r22, r4
    1480:	a1 01       	movw	r20, r2
    1482:	c5 01       	movw	r24, r10
    1484:	0e 94 63 0f 	call	0x1ec6	; 0x1ec6 <__out>
    1488:	80 e1       	ldi	r24, 0x10	; 16
    148a:	e8 1a       	sub	r14, r24
    148c:	f1 08       	sbc	r15, r1
    148e:	f1 cf       	rjmp	.-30     	; 0x1472 <__pad+0x96>
    1490:	2d 89       	ldd	r18, Y+21	; 0x15
    1492:	3e 89       	ldd	r19, Y+22	; 0x16
    1494:	2f 70       	andi	r18, 0x0F	; 15
    1496:	33 27       	eor	r19, r19
    1498:	89 89       	ldd	r24, Y+17	; 0x11
    149a:	9a 89       	ldd	r25, Y+18	; 0x12
    149c:	ac 01       	movw	r20, r24
    149e:	60 e8       	ldi	r22, 0x80	; 128
    14a0:	c5 01       	movw	r24, r10
    14a2:	0e 94 63 0f 	call	0x1ec6	; 0x1ec6 <__out>
    14a6:	8b 89       	ldd	r24, Y+19	; 0x13
    14a8:	9c 89       	ldd	r25, Y+20	; 0x14
    14aa:	89 2b       	or	r24, r25
    14ac:	31 f4       	brne	.+12     	; 0x14ba <__pad+0xde>
    14ae:	96 01       	movw	r18, r12
    14b0:	68 2d       	mov	r22, r8
    14b2:	a3 01       	movw	r20, r6
    14b4:	c5 01       	movw	r24, r10
    14b6:	0e 94 63 0f 	call	0x1ec6	; 0x1ec6 <__out>
    14ba:	c8 01       	movw	r24, r16
    14bc:	66 96       	adiw	r28, 0x16	; 22
    14be:	0f b6       	in	r0, 0x3f	; 63
    14c0:	f8 94       	cli
    14c2:	de bf       	out	0x3e, r29	; 62
    14c4:	0f be       	out	0x3f, r0	; 63
    14c6:	cd bf       	out	0x3d, r28	; 61
    14c8:	df 91       	pop	r29
    14ca:	cf 91       	pop	r28
    14cc:	1f 91       	pop	r17
    14ce:	0f 91       	pop	r16
    14d0:	ff 90       	pop	r15
    14d2:	ef 90       	pop	r14
    14d4:	df 90       	pop	r13
    14d6:	cf 90       	pop	r12
    14d8:	bf 90       	pop	r11
    14da:	af 90       	pop	r10
    14dc:	8f 90       	pop	r8
    14de:	7f 90       	pop	r7
    14e0:	6f 90       	pop	r6
    14e2:	4f 90       	pop	r4
    14e4:	3f 90       	pop	r3
    14e6:	2f 90       	pop	r2
    14e8:	08 95       	ret

Disassembly of section .text.__dummy_fmt4:

00002666 <__fmt_a>:
    2666:	80 e0       	ldi	r24, 0x00	; 0
    2668:	90 e0       	ldi	r25, 0x00	; 0
    266a:	08 95       	ret

Disassembly of section .text.__fmt_state:

000018b6 <__fmt_state>:
    18b6:	cf 92       	push	r12
    18b8:	df 92       	push	r13
    18ba:	ef 92       	push	r14
    18bc:	dc 01       	movw	r26, r24
    18be:	90 e0       	ldi	r25, 0x00	; 0
    18c0:	29 2f       	mov	r18, r25
    18c2:	30 e0       	ldi	r19, 0x00	; 0
    18c4:	22 0f       	add	r18, r18
    18c6:	33 1f       	adc	r19, r19
    18c8:	69 01       	movw	r12, r18
    18ca:	03 2e       	mov	r0, r19
    18cc:	00 0c       	add	r0, r0
    18ce:	ee 08       	sbc	r14, r14
    18d0:	6e 2d       	mov	r22, r14
    18d2:	a6 01       	movw	r20, r12
    18d4:	4a 5d       	subi	r20, 0xDA	; 218
    18d6:	5c 4f       	sbci	r21, 0xFC	; 252
    18d8:	6f 4f       	sbci	r22, 0xFF	; 255
    18da:	6a 01       	movw	r12, r20
    18dc:	e6 2e       	mov	r14, r22
    18de:	fa 01       	movw	r30, r20
    18e0:	5e 2d       	mov	r21, r14
    18e2:	0e 94 2c 13 	call	0x2658	; 0x2658 <__xload_1>
    18e6:	86 2f       	mov	r24, r22
    18e8:	61 11       	cpse	r22, r1
    18ea:	0e c0       	rjmp	.+28     	; 0x1908 <__fmt_state+0x52>
    18ec:	2f 5f       	subi	r18, 0xFF	; 255
    18ee:	3f 4f       	sbci	r19, 0xFF	; 255
    18f0:	03 2e       	mov	r0, r19
    18f2:	00 0c       	add	r0, r0
    18f4:	44 0b       	sbc	r20, r20
    18f6:	2a 5d       	subi	r18, 0xDA	; 218
    18f8:	3c 4f       	sbci	r19, 0xFC	; 252
    18fa:	4f 4f       	sbci	r20, 0xFF	; 255
    18fc:	f9 01       	movw	r30, r18
    18fe:	54 2f       	mov	r21, r20
    1900:	0e 94 2c 13 	call	0x2658	; 0x2658 <__xload_1>
    1904:	86 2f       	mov	r24, r22
    1906:	25 c0       	rjmp	.+74     	; 0x1952 <__fmt_state+0x9c>
    1908:	cd 90       	ld	r12, X+
    190a:	dd 90       	ld	r13, X+
    190c:	ec 90       	ld	r14, X
    190e:	12 97       	sbiw	r26, 0x02	; 2
    1910:	f6 01       	movw	r30, r12
    1912:	5e 2d       	mov	r21, r14
    1914:	0e 94 2c 13 	call	0x2658	; 0x2658 <__xload_1>
    1918:	86 13       	cpse	r24, r22
    191a:	16 c0       	rjmp	.+44     	; 0x1948 <__fmt_state+0x92>
    191c:	2f 5f       	subi	r18, 0xFF	; 255
    191e:	3f 4f       	sbci	r19, 0xFF	; 255
    1920:	03 2e       	mov	r0, r19
    1922:	00 0c       	add	r0, r0
    1924:	44 0b       	sbc	r20, r20
    1926:	2a 5d       	subi	r18, 0xDA	; 218
    1928:	3c 4f       	sbci	r19, 0xFC	; 252
    192a:	4f 4f       	sbci	r20, 0xFF	; 255
    192c:	f9 01       	movw	r30, r18
    192e:	54 2f       	mov	r21, r20
    1930:	0e 94 2c 13 	call	0x2658	; 0x2658 <__xload_1>
    1934:	96 2f       	mov	r25, r22
    1936:	5f ef       	ldi	r21, 0xFF	; 255
    1938:	c5 1a       	sub	r12, r21
    193a:	d5 0a       	sbc	r13, r21
    193c:	e5 0a       	sbc	r14, r21
    193e:	cd 92       	st	X+, r12
    1940:	dd 92       	st	X+, r13
    1942:	ec 92       	st	X, r14
    1944:	12 97       	sbiw	r26, 0x02	; 2
    1946:	01 c0       	rjmp	.+2      	; 0x194a <__fmt_state+0x94>
    1948:	9f 5f       	subi	r25, 0xFF	; 255
    194a:	9b 30       	cpi	r25, 0x0B	; 11
    194c:	08 f4       	brcc	.+2      	; 0x1950 <__fmt_state+0x9a>
    194e:	b8 cf       	rjmp	.-144    	; 0x18c0 <__fmt_state+0xa>
    1950:	89 2f       	mov	r24, r25
    1952:	ef 90       	pop	r14
    1954:	df 90       	pop	r13
    1956:	cf 90       	pop	r12
    1958:	08 95       	ret

Disassembly of section .text.__printf_core:

0000035a <__printf_core>:
 35a:	a3 ea       	ldi	r26, 0xA3	; 163
 35c:	b0 e0       	ldi	r27, 0x00	; 0
 35e:	e3 eb       	ldi	r30, 0xB3	; 179
 360:	f1 e0       	ldi	r31, 0x01	; 1
 362:	0c 94 cf 11 	jmp	0x239e	; 0x239e <__prologue_saves__>
 366:	4c 01       	movw	r8, r24
 368:	59 01       	movw	r10, r18
 36a:	c7 56       	subi	r28, 0x67	; 103
 36c:	df 4f       	sbci	r29, 0xFF	; 255
 36e:	48 83       	st	Y, r20
 370:	59 83       	std	Y+1, r21	; 0x01
 372:	6a 83       	std	Y+2, r22	; 0x02
 374:	c9 59       	subi	r28, 0x99	; 153
 376:	d0 40       	sbci	r29, 0x00	; 0
 378:	21 2c       	mov	r2, r1
 37a:	31 2c       	mov	r3, r1
 37c:	6e 01       	movw	r12, r28
 37e:	2b e8       	ldi	r18, 0x8B	; 139
 380:	c2 0e       	add	r12, r18
 382:	d1 1c       	adc	r13, r1
 384:	85 e2       	ldi	r24, 0x25	; 37
 386:	78 2e       	mov	r7, r24
 388:	26 01       	movw	r4, r12
 38a:	30 e8       	ldi	r19, 0x80	; 128
 38c:	63 2e       	mov	r6, r19
 38e:	ce 01       	movw	r24, r28
 390:	8d 56       	subi	r24, 0x6D	; 109
 392:	9f 4f       	sbci	r25, 0xFF	; 255
 394:	c4 56       	subi	r28, 0x64	; 100
 396:	df 4f       	sbci	r29, 0xFF	; 255
 398:	99 83       	std	Y+1, r25	; 0x01
 39a:	88 83       	st	Y, r24
 39c:	cc 59       	subi	r28, 0x9C	; 156
 39e:	d0 40       	sbci	r29, 0x00	; 0
 3a0:	9c 01       	movw	r18, r24
 3a2:	40 e8       	ldi	r20, 0x80	; 128
 3a4:	cf 55       	subi	r28, 0x5F	; 95
 3a6:	df 4f       	sbci	r29, 0xFF	; 255
 3a8:	28 83       	st	Y, r18
 3aa:	39 83       	std	Y+1, r19	; 0x01
 3ac:	4a 83       	std	Y+2, r20	; 0x02
 3ae:	c1 5a       	subi	r28, 0xA1	; 161
 3b0:	d0 40       	sbci	r29, 0x00	; 0
 3b2:	c7 56       	subi	r28, 0x67	; 103
 3b4:	df 4f       	sbci	r29, 0xFF	; 255
 3b6:	48 81       	ld	r20, Y
 3b8:	c9 59       	subi	r28, 0x99	; 153
 3ba:	d0 40       	sbci	r29, 0x00	; 0
 3bc:	c6 56       	subi	r28, 0x66	; 102
 3be:	df 4f       	sbci	r29, 0xFF	; 255
 3c0:	b8 81       	ld	r27, Y
 3c2:	ca 59       	subi	r28, 0x9A	; 154
 3c4:	d0 40       	sbci	r29, 0x00	; 0
 3c6:	c5 56       	subi	r28, 0x65	; 101
 3c8:	df 4f       	sbci	r29, 0xFF	; 255
 3ca:	78 81       	ld	r23, Y
 3cc:	cb 59       	subi	r28, 0x9B	; 155
 3ce:	d0 40       	sbci	r29, 0x00	; 0
 3d0:	e4 2f       	mov	r30, r20
 3d2:	fb 2f       	mov	r31, r27
 3d4:	57 2f       	mov	r21, r23
 3d6:	0e 94 2c 13 	call	0x2658	; 0x2658 <__xload_1>
 3da:	66 23       	and	r22, r22
 3dc:	09 f4       	brne	.+2      	; 0x3e0 <__printf_core+0x86>
 3de:	d0 c3       	rjmp	.+1952   	; 0xb80 <__LOCK_REGION_LENGTH__+0x780>
 3e0:	cf 57       	subi	r28, 0x7F	; 127
 3e2:	df 4f       	sbci	r29, 0xFF	; 255
 3e4:	19 82       	std	Y+1, r1	; 0x01
 3e6:	18 82       	st	Y, r1
 3e8:	c1 58       	subi	r28, 0x81	; 129
 3ea:	d0 40       	sbci	r29, 0x00	; 0
 3ec:	8f ef       	ldi	r24, 0xFF	; 255
 3ee:	9f ef       	ldi	r25, 0xFF	; 255
 3f0:	cd 57       	subi	r28, 0x7D	; 125
 3f2:	df 4f       	sbci	r29, 0xFF	; 255
 3f4:	99 83       	std	Y+1, r25	; 0x01
 3f6:	88 83       	st	Y, r24
 3f8:	c3 58       	subi	r28, 0x83	; 131
 3fa:	d0 40       	sbci	r29, 0x00	; 0
 3fc:	cb 57       	subi	r28, 0x7B	; 123
 3fe:	df 4f       	sbci	r29, 0xFF	; 255
 400:	19 82       	std	Y+1, r1	; 0x01
 402:	18 82       	st	Y, r1
 404:	c5 58       	subi	r28, 0x85	; 133
 406:	d0 40       	sbci	r29, 0x00	; 0
 408:	e1 e0       	ldi	r30, 0x01	; 1
 40a:	f0 e0       	ldi	r31, 0x00	; 0
 40c:	ec 0f       	add	r30, r28
 40e:	fd 1f       	adc	r31, r29
 410:	c9 57       	subi	r28, 0x79	; 121
 412:	df 4f       	sbci	r29, 0xFF	; 255
 414:	f9 83       	std	Y+1, r31	; 0x01
 416:	e8 83       	st	Y, r30
 418:	c7 58       	subi	r28, 0x87	; 135
 41a:	d0 40       	sbci	r29, 0x00	; 0
 41c:	20 e8       	ldi	r18, 0x80	; 128
 41e:	30 e0       	ldi	r19, 0x00	; 0
 420:	c7 57       	subi	r28, 0x77	; 119
 422:	df 4f       	sbci	r29, 0xFF	; 255
 424:	39 83       	std	Y+1, r19	; 0x01
 426:	28 83       	st	Y, r18
 428:	c9 58       	subi	r28, 0x89	; 137
 42a:	d0 40       	sbci	r29, 0x00	; 0
 42c:	84 2f       	mov	r24, r20
 42e:	9b 2f       	mov	r25, r27
 430:	a7 2f       	mov	r26, r23
 432:	e1 2c       	mov	r14, r1
 434:	f1 2c       	mov	r15, r1
 436:	fc 01       	movw	r30, r24
 438:	5a 2f       	mov	r21, r26
 43a:	0e 94 2c 13 	call	0x2658	; 0x2658 <__xload_1>
 43e:	61 11       	cpse	r22, r1
 440:	1d c0       	rjmp	.+58     	; 0x47c <__LOCK_REGION_LENGTH__+0x7c>
 442:	e1 14       	cp	r14, r1
 444:	f1 04       	cpc	r15, r1
 446:	11 f1       	breq	.+68     	; 0x48c <__LOCK_REGION_LENGTH__+0x8c>
 448:	97 01       	movw	r18, r14
 44a:	5b 2f       	mov	r21, r27
 44c:	67 2f       	mov	r22, r23
 44e:	c4 01       	movw	r24, r8
 450:	0e 94 63 0f 	call	0x1ec6	; 0x1ec6 <__out>
 454:	c7 56       	subi	r28, 0x67	; 103
 456:	df 4f       	sbci	r29, 0xFF	; 255
 458:	88 81       	ld	r24, Y
 45a:	99 81       	ldd	r25, Y+1	; 0x01
 45c:	aa 81       	ldd	r26, Y+2	; 0x02
 45e:	c9 59       	subi	r28, 0x99	; 153
 460:	d0 40       	sbci	r29, 0x00	; 0
 462:	8e 0d       	add	r24, r14
 464:	9f 1d       	adc	r25, r15
 466:	a1 1d       	adc	r26, r1
 468:	f7 fc       	sbrc	r15, 7
 46a:	aa 95       	dec	r26
 46c:	c7 56       	subi	r28, 0x67	; 103
 46e:	df 4f       	sbci	r29, 0xFF	; 255
 470:	88 83       	st	Y, r24
 472:	99 83       	std	Y+1, r25	; 0x01
 474:	aa 83       	std	Y+2, r26	; 0x02
 476:	c9 59       	subi	r28, 0x99	; 153
 478:	d0 40       	sbci	r29, 0x00	; 0
 47a:	08 c0       	rjmp	.+16     	; 0x48c <__LOCK_REGION_LENGTH__+0x8c>
 47c:	01 96       	adiw	r24, 0x01	; 1
 47e:	a1 1d       	adc	r26, r1
 480:	65 32       	cpi	r22, 0x25	; 37
 482:	f9 f2       	breq	.-66     	; 0x442 <__LOCK_REGION_LENGTH__+0x42>
 484:	3f ef       	ldi	r19, 0xFF	; 255
 486:	e3 1a       	sub	r14, r19
 488:	f3 0a       	sbc	r15, r19
 48a:	d5 cf       	rjmp	.-86     	; 0x436 <__LOCK_REGION_LENGTH__+0x36>
 48c:	c7 56       	subi	r28, 0x67	; 103
 48e:	df 4f       	sbci	r29, 0xFF	; 255
 490:	88 81       	ld	r24, Y
 492:	99 81       	ldd	r25, Y+1	; 0x01
 494:	aa 81       	ldd	r26, Y+2	; 0x02
 496:	c9 59       	subi	r28, 0x99	; 153
 498:	d0 40       	sbci	r29, 0x00	; 0
 49a:	fc 01       	movw	r30, r24
 49c:	5a 2f       	mov	r21, r26
 49e:	0e 94 2c 13 	call	0x2658	; 0x2658 <__xload_1>
 4a2:	65 32       	cpi	r22, 0x25	; 37
 4a4:	09 f0       	breq	.+2      	; 0x4a8 <__LOCK_REGION_LENGTH__+0xa8>
 4a6:	5a c3       	rjmp	.+1716   	; 0xb5c <__LOCK_REGION_LENGTH__+0x75c>
 4a8:	9c 01       	movw	r18, r24
 4aa:	4a 2f       	mov	r20, r26
 4ac:	2f 5f       	subi	r18, 0xFF	; 255
 4ae:	3f 4f       	sbci	r19, 0xFF	; 255
 4b0:	4f 4f       	sbci	r20, 0xFF	; 255
 4b2:	c2 56       	subi	r28, 0x62	; 98
 4b4:	df 4f       	sbci	r29, 0xFF	; 255
 4b6:	28 83       	st	Y, r18
 4b8:	39 83       	std	Y+1, r19	; 0x01
 4ba:	4a 83       	std	Y+2, r20	; 0x02
 4bc:	ce 59       	subi	r28, 0x9E	; 158
 4be:	d0 40       	sbci	r29, 0x00	; 0
 4c0:	c7 56       	subi	r28, 0x67	; 103
 4c2:	df 4f       	sbci	r29, 0xFF	; 255
 4c4:	28 83       	st	Y, r18
 4c6:	39 83       	std	Y+1, r19	; 0x01
 4c8:	4a 83       	std	Y+2, r20	; 0x02
 4ca:	c9 59       	subi	r28, 0x99	; 153
 4cc:	d0 40       	sbci	r29, 0x00	; 0
 4ce:	c7 56       	subi	r28, 0x67	; 103
 4d0:	df 4f       	sbci	r29, 0xFF	; 255
 4d2:	88 81       	ld	r24, Y
 4d4:	99 81       	ldd	r25, Y+1	; 0x01
 4d6:	aa 81       	ldd	r26, Y+2	; 0x02
 4d8:	c9 59       	subi	r28, 0x99	; 153
 4da:	d0 40       	sbci	r29, 0x00	; 0
 4dc:	fc 01       	movw	r30, r24
 4de:	5a 2f       	mov	r21, r26
 4e0:	0e 94 2c 13 	call	0x2658	; 0x2658 <__xload_1>
 4e4:	6b 32       	cpi	r22, 0x2B	; 43
 4e6:	41 f4       	brne	.+16     	; 0x4f8 <__LOCK_REGION_LENGTH__+0xf8>
 4e8:	cf 57       	subi	r28, 0x7F	; 127
 4ea:	df 4f       	sbci	r29, 0xFF	; 255
 4ec:	28 81       	ld	r18, Y
 4ee:	39 81       	ldd	r19, Y+1	; 0x01
 4f0:	c1 58       	subi	r28, 0x81	; 129
 4f2:	d0 40       	sbci	r29, 0x00	; 0
 4f4:	24 60       	ori	r18, 0x04	; 4
 4f6:	0b c0       	rjmp	.+22     	; 0x50e <__LOCK_REGION_LENGTH__+0x10e>
 4f8:	6c 32       	cpi	r22, 0x2C	; 44
 4fa:	cc f0       	brlt	.+50     	; 0x52e <__LOCK_REGION_LENGTH__+0x12e>
 4fc:	6d 32       	cpi	r22, 0x2D	; 45
 4fe:	59 f5       	brne	.+86     	; 0x556 <__LOCK_REGION_LENGTH__+0x156>
 500:	cf 57       	subi	r28, 0x7F	; 127
 502:	df 4f       	sbci	r29, 0xFF	; 255
 504:	28 81       	ld	r18, Y
 506:	39 81       	ldd	r19, Y+1	; 0x01
 508:	c1 58       	subi	r28, 0x81	; 129
 50a:	d0 40       	sbci	r29, 0x00	; 0
 50c:	21 60       	ori	r18, 0x01	; 1
 50e:	cf 57       	subi	r28, 0x7F	; 127
 510:	df 4f       	sbci	r29, 0xFF	; 255
 512:	39 83       	std	Y+1, r19	; 0x01
 514:	28 83       	st	Y, r18
 516:	c1 58       	subi	r28, 0x81	; 129
 518:	d0 40       	sbci	r29, 0x00	; 0
 51a:	01 96       	adiw	r24, 0x01	; 1
 51c:	a1 1d       	adc	r26, r1
 51e:	c7 56       	subi	r28, 0x67	; 103
 520:	df 4f       	sbci	r29, 0xFF	; 255
 522:	88 83       	st	Y, r24
 524:	99 83       	std	Y+1, r25	; 0x01
 526:	aa 83       	std	Y+2, r26	; 0x02
 528:	c9 59       	subi	r28, 0x99	; 153
 52a:	d0 40       	sbci	r29, 0x00	; 0
 52c:	d0 cf       	rjmp	.-96     	; 0x4ce <__LOCK_REGION_LENGTH__+0xce>
 52e:	60 32       	cpi	r22, 0x20	; 32
 530:	41 f4       	brne	.+16     	; 0x542 <__LOCK_REGION_LENGTH__+0x142>
 532:	cf 57       	subi	r28, 0x7F	; 127
 534:	df 4f       	sbci	r29, 0xFF	; 255
 536:	28 81       	ld	r18, Y
 538:	39 81       	ldd	r19, Y+1	; 0x01
 53a:	c1 58       	subi	r28, 0x81	; 129
 53c:	d0 40       	sbci	r29, 0x00	; 0
 53e:	28 60       	ori	r18, 0x08	; 8
 540:	e6 cf       	rjmp	.-52     	; 0x50e <__LOCK_REGION_LENGTH__+0x10e>
 542:	63 32       	cpi	r22, 0x23	; 35
 544:	91 f4       	brne	.+36     	; 0x56a <__LOCK_REGION_LENGTH__+0x16a>
 546:	cf 57       	subi	r28, 0x7F	; 127
 548:	df 4f       	sbci	r29, 0xFF	; 255
 54a:	28 81       	ld	r18, Y
 54c:	39 81       	ldd	r19, Y+1	; 0x01
 54e:	c1 58       	subi	r28, 0x81	; 129
 550:	d0 40       	sbci	r29, 0x00	; 0
 552:	20 61       	ori	r18, 0x10	; 16
 554:	dc cf       	rjmp	.-72     	; 0x50e <__LOCK_REGION_LENGTH__+0x10e>
 556:	60 33       	cpi	r22, 0x30	; 48
 558:	41 f4       	brne	.+16     	; 0x56a <__LOCK_REGION_LENGTH__+0x16a>
 55a:	cf 57       	subi	r28, 0x7F	; 127
 55c:	df 4f       	sbci	r29, 0xFF	; 255
 55e:	28 81       	ld	r18, Y
 560:	39 81       	ldd	r19, Y+1	; 0x01
 562:	c1 58       	subi	r28, 0x81	; 129
 564:	d0 40       	sbci	r29, 0x00	; 0
 566:	22 60       	ori	r18, 0x02	; 2
 568:	d2 cf       	rjmp	.-92     	; 0x50e <__LOCK_REGION_LENGTH__+0x10e>
 56a:	6a 32       	cpi	r22, 0x2A	; 42
 56c:	99 f5       	brne	.+102    	; 0x5d4 <__LOCK_REGION_LENGTH__+0x1d4>
 56e:	01 96       	adiw	r24, 0x01	; 1
 570:	a1 1d       	adc	r26, r1
 572:	c7 56       	subi	r28, 0x67	; 103
 574:	df 4f       	sbci	r29, 0xFF	; 255
 576:	88 83       	st	Y, r24
 578:	99 83       	std	Y+1, r25	; 0x01
 57a:	aa 83       	std	Y+2, r26	; 0x02
 57c:	c9 59       	subi	r28, 0x99	; 153
 57e:	d0 40       	sbci	r29, 0x00	; 0
 580:	d5 01       	movw	r26, r10
 582:	ed 91       	ld	r30, X+
 584:	fc 91       	ld	r31, X
 586:	11 97       	sbiw	r26, 0x01	; 1
 588:	cf 01       	movw	r24, r30
 58a:	02 96       	adiw	r24, 0x02	; 2
 58c:	8d 93       	st	X+, r24
 58e:	9c 93       	st	X, r25
 590:	80 81       	ld	r24, Z
 592:	91 81       	ldd	r25, Z+1	; 0x01
 594:	cb 57       	subi	r28, 0x7B	; 123
 596:	df 4f       	sbci	r29, 0xFF	; 255
 598:	99 83       	std	Y+1, r25	; 0x01
 59a:	88 83       	st	Y, r24
 59c:	c5 58       	subi	r28, 0x85	; 133
 59e:	d0 40       	sbci	r29, 0x00	; 0
 5a0:	97 ff       	sbrs	r25, 7
 5a2:	3f c0       	rjmp	.+126    	; 0x622 <__LOCK_REGION_LENGTH__+0x222>
 5a4:	cf 57       	subi	r28, 0x7F	; 127
 5a6:	df 4f       	sbci	r29, 0xFF	; 255
 5a8:	28 81       	ld	r18, Y
 5aa:	39 81       	ldd	r19, Y+1	; 0x01
 5ac:	c1 58       	subi	r28, 0x81	; 129
 5ae:	d0 40       	sbci	r29, 0x00	; 0
 5b0:	b1 e0       	ldi	r27, 0x01	; 1
 5b2:	2b 27       	eor	r18, r27
 5b4:	cf 57       	subi	r28, 0x7F	; 127
 5b6:	df 4f       	sbci	r29, 0xFF	; 255
 5b8:	39 83       	std	Y+1, r19	; 0x01
 5ba:	28 83       	st	Y, r18
 5bc:	c1 58       	subi	r28, 0x81	; 129
 5be:	d0 40       	sbci	r29, 0x00	; 0
 5c0:	91 95       	neg	r25
 5c2:	81 95       	neg	r24
 5c4:	91 09       	sbc	r25, r1
 5c6:	cb 57       	subi	r28, 0x7B	; 123
 5c8:	df 4f       	sbci	r29, 0xFF	; 255
 5ca:	99 83       	std	Y+1, r25	; 0x01
 5cc:	88 83       	st	Y, r24
 5ce:	c5 58       	subi	r28, 0x85	; 133
 5d0:	d0 40       	sbci	r29, 0x00	; 0
 5d2:	27 c0       	rjmp	.+78     	; 0x622 <__LOCK_REGION_LENGTH__+0x222>
 5d4:	bc 01       	movw	r22, r24
 5d6:	8a 2f       	mov	r24, r26
 5d8:	0e 94 35 0e 	call	0x1c6a	; 0x1c6a <atoi>
 5dc:	cb 57       	subi	r28, 0x7B	; 123
 5de:	df 4f       	sbci	r29, 0xFF	; 255
 5e0:	99 83       	std	Y+1, r25	; 0x01
 5e2:	88 83       	st	Y, r24
 5e4:	c5 58       	subi	r28, 0x85	; 133
 5e6:	d0 40       	sbci	r29, 0x00	; 0
 5e8:	c7 56       	subi	r28, 0x67	; 103
 5ea:	df 4f       	sbci	r29, 0xFF	; 255
 5ec:	88 81       	ld	r24, Y
 5ee:	99 81       	ldd	r25, Y+1	; 0x01
 5f0:	aa 81       	ldd	r26, Y+2	; 0x02
 5f2:	c9 59       	subi	r28, 0x99	; 153
 5f4:	d0 40       	sbci	r29, 0x00	; 0
 5f6:	fc 01       	movw	r30, r24
 5f8:	5a 2f       	mov	r21, r26
 5fa:	0e 94 2c 13 	call	0x2658	; 0x2658 <__xload_1>
 5fe:	06 2e       	mov	r0, r22
 600:	00 0c       	add	r0, r0
 602:	77 0b       	sbc	r23, r23
 604:	60 53       	subi	r22, 0x30	; 48
 606:	71 09       	sbc	r23, r1
 608:	6a 30       	cpi	r22, 0x0A	; 10
 60a:	71 05       	cpc	r23, r1
 60c:	50 f4       	brcc	.+20     	; 0x622 <__LOCK_REGION_LENGTH__+0x222>
 60e:	01 96       	adiw	r24, 0x01	; 1
 610:	a1 1d       	adc	r26, r1
 612:	c7 56       	subi	r28, 0x67	; 103
 614:	df 4f       	sbci	r29, 0xFF	; 255
 616:	88 83       	st	Y, r24
 618:	99 83       	std	Y+1, r25	; 0x01
 61a:	aa 83       	std	Y+2, r26	; 0x02
 61c:	c9 59       	subi	r28, 0x99	; 153
 61e:	d0 40       	sbci	r29, 0x00	; 0
 620:	e3 cf       	rjmp	.-58     	; 0x5e8 <__LOCK_REGION_LENGTH__+0x1e8>
 622:	cf 57       	subi	r28, 0x7F	; 127
 624:	df 4f       	sbci	r29, 0xFF	; 255
 626:	88 81       	ld	r24, Y
 628:	99 81       	ldd	r25, Y+1	; 0x01
 62a:	c1 58       	subi	r28, 0x81	; 129
 62c:	d0 40       	sbci	r29, 0x00	; 0
 62e:	80 ff       	sbrs	r24, 0
 630:	07 c0       	rjmp	.+14     	; 0x640 <__LOCK_REGION_LENGTH__+0x240>
 632:	8d 7f       	andi	r24, 0xFD	; 253
 634:	cf 57       	subi	r28, 0x7F	; 127
 636:	df 4f       	sbci	r29, 0xFF	; 255
 638:	99 83       	std	Y+1, r25	; 0x01
 63a:	88 83       	st	Y, r24
 63c:	c1 58       	subi	r28, 0x81	; 129
 63e:	d0 40       	sbci	r29, 0x00	; 0
 640:	c7 56       	subi	r28, 0x67	; 103
 642:	df 4f       	sbci	r29, 0xFF	; 255
 644:	88 81       	ld	r24, Y
 646:	99 81       	ldd	r25, Y+1	; 0x01
 648:	aa 81       	ldd	r26, Y+2	; 0x02
 64a:	c9 59       	subi	r28, 0x99	; 153
 64c:	d0 40       	sbci	r29, 0x00	; 0
 64e:	fc 01       	movw	r30, r24
 650:	5a 2f       	mov	r21, r26
 652:	0e 94 2c 13 	call	0x2658	; 0x2658 <__xload_1>
 656:	6e 32       	cpi	r22, 0x2E	; 46
 658:	09 f0       	breq	.+2      	; 0x65c <__LOCK_REGION_LENGTH__+0x25c>
 65a:	59 c0       	rjmp	.+178    	; 0x70e <__LOCK_REGION_LENGTH__+0x30e>
 65c:	cd 57       	subi	r28, 0x7D	; 125
 65e:	df 4f       	sbci	r29, 0xFF	; 255
 660:	19 82       	std	Y+1, r1	; 0x01
 662:	18 82       	st	Y, r1
 664:	c3 58       	subi	r28, 0x83	; 131
 666:	d0 40       	sbci	r29, 0x00	; 0
 668:	9c 01       	movw	r18, r24
 66a:	4a 2f       	mov	r20, r26
 66c:	2f 5f       	subi	r18, 0xFF	; 255
 66e:	3f 4f       	sbci	r19, 0xFF	; 255
 670:	4f 4f       	sbci	r20, 0xFF	; 255
 672:	c7 56       	subi	r28, 0x67	; 103
 674:	df 4f       	sbci	r29, 0xFF	; 255
 676:	28 83       	st	Y, r18
 678:	39 83       	std	Y+1, r19	; 0x01
 67a:	4a 83       	std	Y+2, r20	; 0x02
 67c:	c9 59       	subi	r28, 0x99	; 153
 67e:	d0 40       	sbci	r29, 0x00	; 0
 680:	f9 01       	movw	r30, r18
 682:	54 2f       	mov	r21, r20
 684:	0e 94 2c 13 	call	0x2658	; 0x2658 <__xload_1>
 688:	6a 32       	cpi	r22, 0x2A	; 42
 68a:	d1 f4       	brne	.+52     	; 0x6c0 <__LOCK_REGION_LENGTH__+0x2c0>
 68c:	02 96       	adiw	r24, 0x02	; 2
 68e:	a1 1d       	adc	r26, r1
 690:	c7 56       	subi	r28, 0x67	; 103
 692:	df 4f       	sbci	r29, 0xFF	; 255
 694:	88 83       	st	Y, r24
 696:	99 83       	std	Y+1, r25	; 0x01
 698:	aa 83       	std	Y+2, r26	; 0x02
 69a:	c9 59       	subi	r28, 0x99	; 153
 69c:	d0 40       	sbci	r29, 0x00	; 0
 69e:	d5 01       	movw	r26, r10
 6a0:	ed 91       	ld	r30, X+
 6a2:	fc 91       	ld	r31, X
 6a4:	11 97       	sbiw	r26, 0x01	; 1
 6a6:	cf 01       	movw	r24, r30
 6a8:	02 96       	adiw	r24, 0x02	; 2
 6aa:	8d 93       	st	X+, r24
 6ac:	9c 93       	st	X, r25
 6ae:	80 81       	ld	r24, Z
 6b0:	91 81       	ldd	r25, Z+1	; 0x01
 6b2:	cd 57       	subi	r28, 0x7D	; 125
 6b4:	df 4f       	sbci	r29, 0xFF	; 255
 6b6:	99 83       	std	Y+1, r25	; 0x01
 6b8:	88 83       	st	Y, r24
 6ba:	c3 58       	subi	r28, 0x83	; 131
 6bc:	d0 40       	sbci	r29, 0x00	; 0
 6be:	27 c0       	rjmp	.+78     	; 0x70e <__LOCK_REGION_LENGTH__+0x30e>
 6c0:	84 2f       	mov	r24, r20
 6c2:	b9 01       	movw	r22, r18
 6c4:	0e 94 35 0e 	call	0x1c6a	; 0x1c6a <atoi>
 6c8:	cd 57       	subi	r28, 0x7D	; 125
 6ca:	df 4f       	sbci	r29, 0xFF	; 255
 6cc:	99 83       	std	Y+1, r25	; 0x01
 6ce:	88 83       	st	Y, r24
 6d0:	c3 58       	subi	r28, 0x83	; 131
 6d2:	d0 40       	sbci	r29, 0x00	; 0
 6d4:	c7 56       	subi	r28, 0x67	; 103
 6d6:	df 4f       	sbci	r29, 0xFF	; 255
 6d8:	88 81       	ld	r24, Y
 6da:	99 81       	ldd	r25, Y+1	; 0x01
 6dc:	aa 81       	ldd	r26, Y+2	; 0x02
 6de:	c9 59       	subi	r28, 0x99	; 153
 6e0:	d0 40       	sbci	r29, 0x00	; 0
 6e2:	fc 01       	movw	r30, r24
 6e4:	5a 2f       	mov	r21, r26
 6e6:	0e 94 2c 13 	call	0x2658	; 0x2658 <__xload_1>
 6ea:	06 2e       	mov	r0, r22
 6ec:	00 0c       	add	r0, r0
 6ee:	77 0b       	sbc	r23, r23
 6f0:	60 53       	subi	r22, 0x30	; 48
 6f2:	71 09       	sbc	r23, r1
 6f4:	6a 30       	cpi	r22, 0x0A	; 10
 6f6:	71 05       	cpc	r23, r1
 6f8:	50 f4       	brcc	.+20     	; 0x70e <__LOCK_REGION_LENGTH__+0x30e>
 6fa:	01 96       	adiw	r24, 0x01	; 1
 6fc:	a1 1d       	adc	r26, r1
 6fe:	c7 56       	subi	r28, 0x67	; 103
 700:	df 4f       	sbci	r29, 0xFF	; 255
 702:	88 83       	st	Y, r24
 704:	99 83       	std	Y+1, r25	; 0x01
 706:	aa 83       	std	Y+2, r26	; 0x02
 708:	c9 59       	subi	r28, 0x99	; 153
 70a:	d0 40       	sbci	r29, 0x00	; 0
 70c:	e3 cf       	rjmp	.-58     	; 0x6d4 <__LOCK_REGION_LENGTH__+0x2d4>
 70e:	ce 01       	movw	r24, r28
 710:	87 56       	subi	r24, 0x67	; 103
 712:	9f 4f       	sbci	r25, 0xFF	; 255
 714:	0e 94 5b 0c 	call	0x18b6	; 0x18b6 <__fmt_state>
 718:	18 2f       	mov	r17, r24
 71a:	c7 56       	subi	r28, 0x67	; 103
 71c:	df 4f       	sbci	r29, 0xFF	; 255
 71e:	98 81       	ld	r25, Y
 720:	c9 59       	subi	r28, 0x99	; 153
 722:	d0 40       	sbci	r29, 0x00	; 0
 724:	c6 56       	subi	r28, 0x66	; 102
 726:	df 4f       	sbci	r29, 0xFF	; 255
 728:	88 81       	ld	r24, Y
 72a:	ca 59       	subi	r28, 0x9A	; 154
 72c:	d0 40       	sbci	r29, 0x00	; 0
 72e:	c5 56       	subi	r28, 0x65	; 101
 730:	df 4f       	sbci	r29, 0xFF	; 255
 732:	58 81       	ld	r21, Y
 734:	cb 59       	subi	r28, 0x9B	; 155
 736:	d0 40       	sbci	r29, 0x00	; 0
 738:	e9 2f       	mov	r30, r25
 73a:	f8 2f       	mov	r31, r24
 73c:	0e 94 2c 13 	call	0x2658	; 0x2658 <__xload_1>
 740:	86 2f       	mov	r24, r22
 742:	66 0f       	add	r22, r22
 744:	99 0b       	sbc	r25, r25
 746:	0e 94 08 13 	call	0x2610	; 0x2610 <tolower>
 74a:	89 36       	cpi	r24, 0x69	; 105
 74c:	91 05       	cpc	r25, r1
 74e:	09 f4       	brne	.+2      	; 0x752 <__LOCK_REGION_LENGTH__+0x352>
 750:	5b c0       	rjmp	.+182    	; 0x808 <__LOCK_REGION_LENGTH__+0x408>
 752:	b4 f4       	brge	.+44     	; 0x780 <__LOCK_REGION_LENGTH__+0x380>
 754:	83 36       	cpi	r24, 0x63	; 99
 756:	91 05       	cpc	r25, r1
 758:	09 f4       	brne	.+2      	; 0x75c <__LOCK_REGION_LENGTH__+0x35c>
 75a:	69 c1       	rjmp	.+722    	; 0xa2e <__LOCK_REGION_LENGTH__+0x62e>
 75c:	44 f4       	brge	.+16     	; 0x76e <__LOCK_REGION_LENGTH__+0x36e>
 75e:	85 32       	cpi	r24, 0x25	; 37
 760:	91 05       	cpc	r25, r1
 762:	09 f4       	brne	.+2      	; 0x766 <__LOCK_REGION_LENGTH__+0x366>
 764:	a4 c1       	rjmp	.+840    	; 0xaae <__LOCK_REGION_LENGTH__+0x6ae>
 766:	81 36       	cpi	r24, 0x61	; 97
 768:	91 05       	cpc	r25, r1
 76a:	29 f1       	breq	.+74     	; 0x7b6 <__LOCK_REGION_LENGTH__+0x3b6>
 76c:	b6 c1       	rjmp	.+876    	; 0xada <__LOCK_REGION_LENGTH__+0x6da>
 76e:	84 36       	cpi	r24, 0x64	; 100
 770:	91 05       	cpc	r25, r1
 772:	09 f4       	brne	.+2      	; 0x776 <__LOCK_REGION_LENGTH__+0x376>
 774:	49 c0       	rjmp	.+146    	; 0x808 <__LOCK_REGION_LENGTH__+0x408>
 776:	88 36       	cpi	r24, 0x68	; 104
 778:	91 05       	cpc	r25, r1
 77a:	0c f4       	brge	.+2      	; 0x77e <__LOCK_REGION_LENGTH__+0x37e>
 77c:	2f c1       	rjmp	.+606    	; 0x9dc <__LOCK_REGION_LENGTH__+0x5dc>
 77e:	ad c1       	rjmp	.+858    	; 0xada <__LOCK_REGION_LENGTH__+0x6da>
 780:	80 37       	cpi	r24, 0x70	; 112
 782:	91 05       	cpc	r25, r1
 784:	09 f4       	brne	.+2      	; 0x788 <__LOCK_REGION_LENGTH__+0x388>
 786:	cd c0       	rjmp	.+410    	; 0x922 <__LOCK_REGION_LENGTH__+0x522>
 788:	4c f4       	brge	.+18     	; 0x79c <__LOCK_REGION_LENGTH__+0x39c>
 78a:	8e 36       	cpi	r24, 0x6E	; 110
 78c:	91 05       	cpc	r25, r1
 78e:	09 f4       	brne	.+2      	; 0x792 <__LOCK_REGION_LENGTH__+0x392>
 790:	1b c1       	rjmp	.+566    	; 0x9c8 <__LOCK_REGION_LENGTH__+0x5c8>
 792:	8f 36       	cpi	r24, 0x6F	; 111
 794:	91 05       	cpc	r25, r1
 796:	09 f4       	brne	.+2      	; 0x79a <__LOCK_REGION_LENGTH__+0x39a>
 798:	7d c0       	rjmp	.+250    	; 0x894 <__LOCK_REGION_LENGTH__+0x494>
 79a:	9f c1       	rjmp	.+830    	; 0xada <__LOCK_REGION_LENGTH__+0x6da>
 79c:	85 37       	cpi	r24, 0x75	; 117
 79e:	91 05       	cpc	r25, r1
 7a0:	09 f4       	brne	.+2      	; 0x7a4 <__LOCK_REGION_LENGTH__+0x3a4>
 7a2:	55 c0       	rjmp	.+170    	; 0x84e <__LOCK_REGION_LENGTH__+0x44e>
 7a4:	88 37       	cpi	r24, 0x78	; 120
 7a6:	91 05       	cpc	r25, r1
 7a8:	09 f4       	brne	.+2      	; 0x7ac <__LOCK_REGION_LENGTH__+0x3ac>
 7aa:	97 c0       	rjmp	.+302    	; 0x8da <__LOCK_REGION_LENGTH__+0x4da>
 7ac:	83 37       	cpi	r24, 0x73	; 115
 7ae:	91 05       	cpc	r25, r1
 7b0:	09 f0       	breq	.+2      	; 0x7b4 <__LOCK_REGION_LENGTH__+0x3b4>
 7b2:	93 c1       	rjmp	.+806    	; 0xada <__LOCK_REGION_LENGTH__+0x6da>
 7b4:	5b c1       	rjmp	.+694    	; 0xa6c <__LOCK_REGION_LENGTH__+0x66c>
 7b6:	61 2f       	mov	r22, r17
 7b8:	70 e0       	ldi	r23, 0x00	; 0
 7ba:	a5 01       	movw	r20, r10
 7bc:	c6 01       	movw	r24, r12
 7be:	0e 94 91 11 	call	0x2322	; 0x2322 <__pop_float>
 7c2:	89 2b       	or	r24, r25
 7c4:	09 f4       	brne	.+2      	; 0x7c8 <__LOCK_REGION_LENGTH__+0x3c8>
 7c6:	ba c1       	rjmp	.+884    	; 0xb3c <__LOCK_REGION_LENGTH__+0x73c>
 7c8:	c7 56       	subi	r28, 0x67	; 103
 7ca:	df 4f       	sbci	r29, 0xFF	; 255
 7cc:	88 81       	ld	r24, Y
 7ce:	99 81       	ldd	r25, Y+1	; 0x01
 7d0:	aa 81       	ldd	r26, Y+2	; 0x02
 7d2:	c9 59       	subi	r28, 0x99	; 153
 7d4:	d0 40       	sbci	r29, 0x00	; 0
 7d6:	9c 01       	movw	r18, r24
 7d8:	4a 2f       	mov	r20, r26
 7da:	2f 5f       	subi	r18, 0xFF	; 255
 7dc:	3f 4f       	sbci	r19, 0xFF	; 255
 7de:	4f 4f       	sbci	r20, 0xFF	; 255
 7e0:	c7 56       	subi	r28, 0x67	; 103
 7e2:	df 4f       	sbci	r29, 0xFF	; 255
 7e4:	28 83       	st	Y, r18
 7e6:	39 83       	std	Y+1, r19	; 0x01
 7e8:	4a 83       	std	Y+2, r20	; 0x02
 7ea:	c9 59       	subi	r28, 0x99	; 153
 7ec:	d0 40       	sbci	r29, 0x00	; 0
 7ee:	fc 01       	movw	r30, r24
 7f0:	5a 2f       	mov	r21, r26
 7f2:	0e 94 2c 13 	call	0x2658	; 0x2658 <__xload_1>
 7f6:	26 2f       	mov	r18, r22
 7f8:	a6 01       	movw	r20, r12
 7fa:	be 01       	movw	r22, r28
 7fc:	6f 57       	subi	r22, 0x7F	; 127
 7fe:	7f 4f       	sbci	r23, 0xFF	; 255
 800:	c4 01       	movw	r24, r8
 802:	0e 94 33 13 	call	0x2666	; 0x2666 <__fmt_a>
 806:	97 c1       	rjmp	.+814    	; 0xb36 <__LOCK_REGION_LENGTH__+0x736>
 808:	61 2f       	mov	r22, r17
 80a:	70 e0       	ldi	r23, 0x00	; 0
 80c:	95 01       	movw	r18, r10
 80e:	41 e0       	ldi	r20, 0x01	; 1
 810:	50 e0       	ldi	r21, 0x00	; 0
 812:	c6 01       	movw	r24, r12
 814:	0e 94 90 08 	call	0x1120	; 0x1120 <__pop_int>
 818:	89 2b       	or	r24, r25
 81a:	09 f4       	brne	.+2      	; 0x81e <__LOCK_REGION_LENGTH__+0x41e>
 81c:	8f c1       	rjmp	.+798    	; 0xb3c <__LOCK_REGION_LENGTH__+0x73c>
 81e:	c7 56       	subi	r28, 0x67	; 103
 820:	df 4f       	sbci	r29, 0xFF	; 255
 822:	88 81       	ld	r24, Y
 824:	99 81       	ldd	r25, Y+1	; 0x01
 826:	aa 81       	ldd	r26, Y+2	; 0x02
 828:	c9 59       	subi	r28, 0x99	; 153
 82a:	d0 40       	sbci	r29, 0x00	; 0
 82c:	01 96       	adiw	r24, 0x01	; 1
 82e:	a1 1d       	adc	r26, r1
 830:	c7 56       	subi	r28, 0x67	; 103
 832:	df 4f       	sbci	r29, 0xFF	; 255
 834:	88 83       	st	Y, r24
 836:	99 83       	std	Y+1, r25	; 0x01
 838:	aa 83       	std	Y+2, r26	; 0x02
 83a:	c9 59       	subi	r28, 0x99	; 153
 83c:	d0 40       	sbci	r29, 0x00	; 0
 83e:	a6 01       	movw	r20, r12
 840:	be 01       	movw	r22, r28
 842:	6f 57       	subi	r22, 0x7F	; 127
 844:	7f 4f       	sbci	r23, 0xFF	; 255
 846:	c4 01       	movw	r24, r8
 848:	0e 94 d1 07 	call	0xfa2	; 0xfa2 <__fmt_d>
 84c:	74 c1       	rjmp	.+744    	; 0xb36 <__LOCK_REGION_LENGTH__+0x736>
 84e:	61 2f       	mov	r22, r17
 850:	70 e0       	ldi	r23, 0x00	; 0
 852:	95 01       	movw	r18, r10
 854:	40 e0       	ldi	r20, 0x00	; 0
 856:	50 e0       	ldi	r21, 0x00	; 0
 858:	c6 01       	movw	r24, r12
 85a:	0e 94 90 08 	call	0x1120	; 0x1120 <__pop_int>
 85e:	89 2b       	or	r24, r25
 860:	09 f4       	brne	.+2      	; 0x864 <__LOCK_REGION_LENGTH__+0x464>
 862:	6c c1       	rjmp	.+728    	; 0xb3c <__LOCK_REGION_LENGTH__+0x73c>
 864:	c7 56       	subi	r28, 0x67	; 103
 866:	df 4f       	sbci	r29, 0xFF	; 255
 868:	88 81       	ld	r24, Y
 86a:	99 81       	ldd	r25, Y+1	; 0x01
 86c:	aa 81       	ldd	r26, Y+2	; 0x02
 86e:	c9 59       	subi	r28, 0x99	; 153
 870:	d0 40       	sbci	r29, 0x00	; 0
 872:	01 96       	adiw	r24, 0x01	; 1
 874:	a1 1d       	adc	r26, r1
 876:	c7 56       	subi	r28, 0x67	; 103
 878:	df 4f       	sbci	r29, 0xFF	; 255
 87a:	88 83       	st	Y, r24
 87c:	99 83       	std	Y+1, r25	; 0x01
 87e:	aa 83       	std	Y+2, r26	; 0x02
 880:	c9 59       	subi	r28, 0x99	; 153
 882:	d0 40       	sbci	r29, 0x00	; 0
 884:	a6 01       	movw	r20, r12
 886:	be 01       	movw	r22, r28
 888:	6f 57       	subi	r22, 0x7F	; 127
 88a:	7f 4f       	sbci	r23, 0xFF	; 255
 88c:	c4 01       	movw	r24, r8
 88e:	0e 94 b0 0b 	call	0x1760	; 0x1760 <__fmt_u>
 892:	51 c1       	rjmp	.+674    	; 0xb36 <__LOCK_REGION_LENGTH__+0x736>
 894:	61 2f       	mov	r22, r17
 896:	70 e0       	ldi	r23, 0x00	; 0
 898:	95 01       	movw	r18, r10
 89a:	40 e0       	ldi	r20, 0x00	; 0
 89c:	50 e0       	ldi	r21, 0x00	; 0
 89e:	c6 01       	movw	r24, r12
 8a0:	0e 94 90 08 	call	0x1120	; 0x1120 <__pop_int>
 8a4:	89 2b       	or	r24, r25
 8a6:	09 f4       	brne	.+2      	; 0x8aa <__LOCK_REGION_LENGTH__+0x4aa>
 8a8:	49 c1       	rjmp	.+658    	; 0xb3c <__LOCK_REGION_LENGTH__+0x73c>
 8aa:	c7 56       	subi	r28, 0x67	; 103
 8ac:	df 4f       	sbci	r29, 0xFF	; 255
 8ae:	88 81       	ld	r24, Y
 8b0:	99 81       	ldd	r25, Y+1	; 0x01
 8b2:	aa 81       	ldd	r26, Y+2	; 0x02
 8b4:	c9 59       	subi	r28, 0x99	; 153
 8b6:	d0 40       	sbci	r29, 0x00	; 0
 8b8:	01 96       	adiw	r24, 0x01	; 1
 8ba:	a1 1d       	adc	r26, r1
 8bc:	c7 56       	subi	r28, 0x67	; 103
 8be:	df 4f       	sbci	r29, 0xFF	; 255
 8c0:	88 83       	st	Y, r24
 8c2:	99 83       	std	Y+1, r25	; 0x01
 8c4:	aa 83       	std	Y+2, r26	; 0x02
 8c6:	c9 59       	subi	r28, 0x99	; 153
 8c8:	d0 40       	sbci	r29, 0x00	; 0
 8ca:	a6 01       	movw	r20, r12
 8cc:	be 01       	movw	r22, r28
 8ce:	6f 57       	subi	r22, 0x7F	; 127
 8d0:	7f 4f       	sbci	r23, 0xFF	; 255
 8d2:	c4 01       	movw	r24, r8
 8d4:	0e 94 e1 0a 	call	0x15c2	; 0x15c2 <__fmt_o>
 8d8:	2e c1       	rjmp	.+604    	; 0xb36 <__LOCK_REGION_LENGTH__+0x736>
 8da:	61 2f       	mov	r22, r17
 8dc:	70 e0       	ldi	r23, 0x00	; 0
 8de:	95 01       	movw	r18, r10
 8e0:	40 e0       	ldi	r20, 0x00	; 0
 8e2:	50 e0       	ldi	r21, 0x00	; 0
 8e4:	c6 01       	movw	r24, r12
 8e6:	0e 94 90 08 	call	0x1120	; 0x1120 <__pop_int>
 8ea:	89 2b       	or	r24, r25
 8ec:	09 f4       	brne	.+2      	; 0x8f0 <__LOCK_REGION_LENGTH__+0x4f0>
 8ee:	26 c1       	rjmp	.+588    	; 0xb3c <__LOCK_REGION_LENGTH__+0x73c>
 8f0:	c7 56       	subi	r28, 0x67	; 103
 8f2:	df 4f       	sbci	r29, 0xFF	; 255
 8f4:	88 81       	ld	r24, Y
 8f6:	99 81       	ldd	r25, Y+1	; 0x01
 8f8:	aa 81       	ldd	r26, Y+2	; 0x02
 8fa:	c9 59       	subi	r28, 0x99	; 153
 8fc:	d0 40       	sbci	r29, 0x00	; 0
 8fe:	9c 01       	movw	r18, r24
 900:	4a 2f       	mov	r20, r26
 902:	2f 5f       	subi	r18, 0xFF	; 255
 904:	3f 4f       	sbci	r19, 0xFF	; 255
 906:	4f 4f       	sbci	r20, 0xFF	; 255
 908:	c7 56       	subi	r28, 0x67	; 103
 90a:	df 4f       	sbci	r29, 0xFF	; 255
 90c:	28 83       	st	Y, r18
 90e:	39 83       	std	Y+1, r19	; 0x01
 910:	4a 83       	std	Y+2, r20	; 0x02
 912:	c9 59       	subi	r28, 0x99	; 153
 914:	d0 40       	sbci	r29, 0x00	; 0
 916:	fc 01       	movw	r30, r24
 918:	5a 2f       	mov	r21, r26
 91a:	0e 94 2c 13 	call	0x2658	; 0x2658 <__xload_1>
 91e:	26 2f       	mov	r18, r22
 920:	4b c0       	rjmp	.+150    	; 0x9b8 <__LOCK_REGION_LENGTH__+0x5b8>
 922:	95 01       	movw	r18, r10
 924:	40 e0       	ldi	r20, 0x00	; 0
 926:	50 e0       	ldi	r21, 0x00	; 0
 928:	60 ef       	ldi	r22, 0xF0	; 240
 92a:	70 e0       	ldi	r23, 0x00	; 0
 92c:	c6 01       	movw	r24, r12
 92e:	0e 94 90 08 	call	0x1120	; 0x1120 <__pop_int>
 932:	89 2b       	or	r24, r25
 934:	09 f4       	brne	.+2      	; 0x938 <__LOCK_REGION_LENGTH__+0x538>
 936:	02 c1       	rjmp	.+516    	; 0xb3c <__LOCK_REGION_LENGTH__+0x73c>
 938:	c7 56       	subi	r28, 0x67	; 103
 93a:	df 4f       	sbci	r29, 0xFF	; 255
 93c:	88 81       	ld	r24, Y
 93e:	99 81       	ldd	r25, Y+1	; 0x01
 940:	aa 81       	ldd	r26, Y+2	; 0x02
 942:	c9 59       	subi	r28, 0x99	; 153
 944:	d0 40       	sbci	r29, 0x00	; 0
 946:	01 96       	adiw	r24, 0x01	; 1
 948:	a1 1d       	adc	r26, r1
 94a:	c7 56       	subi	r28, 0x67	; 103
 94c:	df 4f       	sbci	r29, 0xFF	; 255
 94e:	88 83       	st	Y, r24
 950:	99 83       	std	Y+1, r25	; 0x01
 952:	aa 83       	std	Y+2, r26	; 0x02
 954:	c9 59       	subi	r28, 0x99	; 153
 956:	d0 40       	sbci	r29, 0x00	; 0
 958:	86 e0       	ldi	r24, 0x06	; 6
 95a:	24 e5       	ldi	r18, 0x54	; 84
 95c:	33 e0       	ldi	r19, 0x03	; 3
 95e:	40 e0       	ldi	r20, 0x00	; 0
 960:	f9 01       	movw	r30, r18
 962:	de 01       	movw	r26, r28
 964:	ad 56       	subi	r26, 0x6D	; 109
 966:	bf 4f       	sbci	r27, 0xFF	; 255
 968:	74 2f       	mov	r23, r20
 96a:	0e 94 ba 12 	call	0x2574	; 0x2574 <__movmemx_qi>
 96e:	d6 01       	movw	r26, r12
 970:	2c 91       	ld	r18, X
 972:	11 96       	adiw	r26, 0x01	; 1
 974:	3c 91       	ld	r19, X
 976:	11 97       	sbiw	r26, 0x01	; 1
 978:	12 96       	adiw	r26, 0x02	; 2
 97a:	4c 91       	ld	r20, X
 97c:	12 97       	sbiw	r26, 0x02	; 2
 97e:	13 96       	adiw	r26, 0x03	; 3
 980:	5c 91       	ld	r21, X
 982:	13 97       	sbiw	r26, 0x03	; 3
 984:	14 96       	adiw	r26, 0x04	; 4
 986:	6c 91       	ld	r22, X
 988:	14 97       	sbiw	r26, 0x04	; 4
 98a:	15 96       	adiw	r26, 0x05	; 5
 98c:	7c 91       	ld	r23, X
 98e:	15 97       	sbiw	r26, 0x05	; 5
 990:	16 96       	adiw	r26, 0x06	; 6
 992:	8c 91       	ld	r24, X
 994:	16 97       	sbiw	r26, 0x06	; 6
 996:	17 96       	adiw	r26, 0x07	; 7
 998:	9c 91       	ld	r25, X
 99a:	a0 e0       	ldi	r26, 0x00	; 0
 99c:	0e 94 d4 12 	call	0x25a8	; 0x25a8 <__cmpdi2_s8>
 9a0:	51 f4       	brne	.+20     	; 0x9b6 <__LOCK_REGION_LENGTH__+0x5b6>
 9a2:	00 e0       	ldi	r16, 0x00	; 0
 9a4:	10 e0       	ldi	r17, 0x00	; 0
 9a6:	cf 55       	subi	r28, 0x5F	; 95
 9a8:	df 4f       	sbci	r29, 0xFF	; 255
 9aa:	28 81       	ld	r18, Y
 9ac:	39 81       	ldd	r19, Y+1	; 0x01
 9ae:	4a 81       	ldd	r20, Y+2	; 0x02
 9b0:	c1 5a       	subi	r28, 0xA1	; 161
 9b2:	d0 40       	sbci	r29, 0x00	; 0
 9b4:	ba c0       	rjmp	.+372    	; 0xb2a <__LOCK_REGION_LENGTH__+0x72a>
 9b6:	28 e7       	ldi	r18, 0x78	; 120
 9b8:	a6 01       	movw	r20, r12
 9ba:	be 01       	movw	r22, r28
 9bc:	6f 57       	subi	r22, 0x7F	; 127
 9be:	7f 4f       	sbci	r23, 0xFF	; 255
 9c0:	c4 01       	movw	r24, r8
 9c2:	0e 94 c6 05 	call	0xb8c	; 0xb8c <__fmt_x>
 9c6:	b7 c0       	rjmp	.+366    	; 0xb36 <__LOCK_REGION_LENGTH__+0x736>
 9c8:	61 2f       	mov	r22, r17
 9ca:	70 e0       	ldi	r23, 0x00	; 0
 9cc:	95 01       	movw	r18, r10
 9ce:	a1 01       	movw	r20, r2
 9d0:	4e 0d       	add	r20, r14
 9d2:	5f 1d       	adc	r21, r15
 9d4:	c6 01       	movw	r24, r12
 9d6:	0e 94 75 0a 	call	0x14ea	; 0x14ea <__pop_ptr>
 9da:	b0 c0       	rjmp	.+352    	; 0xb3c <__LOCK_REGION_LENGTH__+0x73c>
 9dc:	61 2f       	mov	r22, r17
 9de:	70 e0       	ldi	r23, 0x00	; 0
 9e0:	a5 01       	movw	r20, r10
 9e2:	c6 01       	movw	r24, r12
 9e4:	0e 94 91 11 	call	0x2322	; 0x2322 <__pop_float>
 9e8:	89 2b       	or	r24, r25
 9ea:	09 f4       	brne	.+2      	; 0x9ee <__LOCK_REGION_LENGTH__+0x5ee>
 9ec:	a7 c0       	rjmp	.+334    	; 0xb3c <__LOCK_REGION_LENGTH__+0x73c>
 9ee:	c7 56       	subi	r28, 0x67	; 103
 9f0:	df 4f       	sbci	r29, 0xFF	; 255
 9f2:	88 81       	ld	r24, Y
 9f4:	99 81       	ldd	r25, Y+1	; 0x01
 9f6:	aa 81       	ldd	r26, Y+2	; 0x02
 9f8:	c9 59       	subi	r28, 0x99	; 153
 9fa:	d0 40       	sbci	r29, 0x00	; 0
 9fc:	9c 01       	movw	r18, r24
 9fe:	4a 2f       	mov	r20, r26
 a00:	2f 5f       	subi	r18, 0xFF	; 255
 a02:	3f 4f       	sbci	r19, 0xFF	; 255
 a04:	4f 4f       	sbci	r20, 0xFF	; 255
 a06:	c7 56       	subi	r28, 0x67	; 103
 a08:	df 4f       	sbci	r29, 0xFF	; 255
 a0a:	28 83       	st	Y, r18
 a0c:	39 83       	std	Y+1, r19	; 0x01
 a0e:	4a 83       	std	Y+2, r20	; 0x02
 a10:	c9 59       	subi	r28, 0x99	; 153
 a12:	d0 40       	sbci	r29, 0x00	; 0
 a14:	fc 01       	movw	r30, r24
 a16:	5a 2f       	mov	r21, r26
 a18:	0e 94 2c 13 	call	0x2658	; 0x2658 <__xload_1>
 a1c:	26 2f       	mov	r18, r22
 a1e:	a6 01       	movw	r20, r12
 a20:	be 01       	movw	r22, r28
 a22:	6f 57       	subi	r22, 0x7F	; 127
 a24:	7f 4f       	sbci	r23, 0xFF	; 255
 a26:	c4 01       	movw	r24, r8
 a28:	0e 94 33 13 	call	0x2666	; 0x2666 <__fmt_a>
 a2c:	84 c0       	rjmp	.+264    	; 0xb36 <__LOCK_REGION_LENGTH__+0x736>
 a2e:	10 38       	cpi	r17, 0x80	; 128
 a30:	09 f0       	breq	.+2      	; 0xa34 <__LOCK_REGION_LENGTH__+0x634>
 a32:	84 c0       	rjmp	.+264    	; 0xb3c <__LOCK_REGION_LENGTH__+0x73c>
 a34:	c7 56       	subi	r28, 0x67	; 103
 a36:	df 4f       	sbci	r29, 0xFF	; 255
 a38:	88 81       	ld	r24, Y
 a3a:	99 81       	ldd	r25, Y+1	; 0x01
 a3c:	aa 81       	ldd	r26, Y+2	; 0x02
 a3e:	c9 59       	subi	r28, 0x99	; 153
 a40:	d0 40       	sbci	r29, 0x00	; 0
 a42:	01 96       	adiw	r24, 0x01	; 1
 a44:	a1 1d       	adc	r26, r1
 a46:	c7 56       	subi	r28, 0x67	; 103
 a48:	df 4f       	sbci	r29, 0xFF	; 255
 a4a:	88 83       	st	Y, r24
 a4c:	99 83       	std	Y+1, r25	; 0x01
 a4e:	aa 83       	std	Y+2, r26	; 0x02
 a50:	c9 59       	subi	r28, 0x99	; 153
 a52:	d0 40       	sbci	r29, 0x00	; 0
 a54:	d5 01       	movw	r26, r10
 a56:	ed 91       	ld	r30, X+
 a58:	fc 91       	ld	r31, X
 a5a:	11 97       	sbiw	r26, 0x01	; 1
 a5c:	cf 01       	movw	r24, r30
 a5e:	02 96       	adiw	r24, 0x02	; 2
 a60:	8d 93       	st	X+, r24
 a62:	9c 93       	st	X, r25
 a64:	80 81       	ld	r24, Z
 a66:	f6 01       	movw	r30, r12
 a68:	80 83       	st	Z, r24
 a6a:	5b c0       	rjmp	.+182    	; 0xb22 <__LOCK_REGION_LENGTH__+0x722>
 a6c:	10 38       	cpi	r17, 0x80	; 128
 a6e:	09 f0       	breq	.+2      	; 0xa72 <__LOCK_REGION_LENGTH__+0x672>
 a70:	65 c0       	rjmp	.+202    	; 0xb3c <__LOCK_REGION_LENGTH__+0x73c>
 a72:	c7 56       	subi	r28, 0x67	; 103
 a74:	df 4f       	sbci	r29, 0xFF	; 255
 a76:	88 81       	ld	r24, Y
 a78:	99 81       	ldd	r25, Y+1	; 0x01
 a7a:	aa 81       	ldd	r26, Y+2	; 0x02
 a7c:	c9 59       	subi	r28, 0x99	; 153
 a7e:	d0 40       	sbci	r29, 0x00	; 0
 a80:	01 96       	adiw	r24, 0x01	; 1
 a82:	a1 1d       	adc	r26, r1
 a84:	c7 56       	subi	r28, 0x67	; 103
 a86:	df 4f       	sbci	r29, 0xFF	; 255
 a88:	88 83       	st	Y, r24
 a8a:	99 83       	std	Y+1, r25	; 0x01
 a8c:	aa 83       	std	Y+2, r26	; 0x02
 a8e:	c9 59       	subi	r28, 0x99	; 153
 a90:	d0 40       	sbci	r29, 0x00	; 0
 a92:	d5 01       	movw	r26, r10
 a94:	ed 91       	ld	r30, X+
 a96:	fc 91       	ld	r31, X
 a98:	11 97       	sbiw	r26, 0x01	; 1
 a9a:	cf 01       	movw	r24, r30
 a9c:	03 96       	adiw	r24, 0x03	; 3
 a9e:	8d 93       	st	X+, r24
 aa0:	9c 93       	st	X, r25
 aa2:	20 81       	ld	r18, Z
 aa4:	31 81       	ldd	r19, Z+1	; 0x01
 aa6:	42 81       	ldd	r20, Z+2	; 0x02
 aa8:	00 e0       	ldi	r16, 0x00	; 0
 aaa:	10 e0       	ldi	r17, 0x00	; 0
 aac:	3e c0       	rjmp	.+124    	; 0xb2a <__LOCK_REGION_LENGTH__+0x72a>
 aae:	10 38       	cpi	r17, 0x80	; 128
 ab0:	09 f0       	breq	.+2      	; 0xab4 <__LOCK_REGION_LENGTH__+0x6b4>
 ab2:	44 c0       	rjmp	.+136    	; 0xb3c <__LOCK_REGION_LENGTH__+0x73c>
 ab4:	c7 56       	subi	r28, 0x67	; 103
 ab6:	df 4f       	sbci	r29, 0xFF	; 255
 ab8:	88 81       	ld	r24, Y
 aba:	99 81       	ldd	r25, Y+1	; 0x01
 abc:	aa 81       	ldd	r26, Y+2	; 0x02
 abe:	c9 59       	subi	r28, 0x99	; 153
 ac0:	d0 40       	sbci	r29, 0x00	; 0
 ac2:	01 96       	adiw	r24, 0x01	; 1
 ac4:	a1 1d       	adc	r26, r1
 ac6:	c7 56       	subi	r28, 0x67	; 103
 ac8:	df 4f       	sbci	r29, 0xFF	; 255
 aca:	88 83       	st	Y, r24
 acc:	99 83       	std	Y+1, r25	; 0x01
 ace:	aa 83       	std	Y+2, r26	; 0x02
 ad0:	c9 59       	subi	r28, 0x99	; 153
 ad2:	d0 40       	sbci	r29, 0x00	; 0
 ad4:	f6 01       	movw	r30, r12
 ad6:	70 82       	st	Z, r7
 ad8:	24 c0       	rjmp	.+72     	; 0xb22 <__LOCK_REGION_LENGTH__+0x722>
 ada:	d6 01       	movw	r26, r12
 adc:	7c 92       	st	X, r7
 ade:	c2 56       	subi	r28, 0x62	; 98
 ae0:	df 4f       	sbci	r29, 0xFF	; 255
 ae2:	28 81       	ld	r18, Y
 ae4:	39 81       	ldd	r19, Y+1	; 0x01
 ae6:	4a 81       	ldd	r20, Y+2	; 0x02
 ae8:	ce 59       	subi	r28, 0x9E	; 158
 aea:	d0 40       	sbci	r29, 0x00	; 0
 aec:	c7 56       	subi	r28, 0x67	; 103
 aee:	df 4f       	sbci	r29, 0xFF	; 255
 af0:	28 83       	st	Y, r18
 af2:	39 83       	std	Y+1, r19	; 0x01
 af4:	4a 83       	std	Y+2, r20	; 0x02
 af6:	c9 59       	subi	r28, 0x99	; 153
 af8:	d0 40       	sbci	r29, 0x00	; 0
 afa:	cf 57       	subi	r28, 0x7F	; 127
 afc:	df 4f       	sbci	r29, 0xFF	; 255
 afe:	19 82       	std	Y+1, r1	; 0x01
 b00:	18 82       	st	Y, r1
 b02:	c1 58       	subi	r28, 0x81	; 129
 b04:	d0 40       	sbci	r29, 0x00	; 0
 b06:	cb 57       	subi	r28, 0x7B	; 123
 b08:	df 4f       	sbci	r29, 0xFF	; 255
 b0a:	19 82       	std	Y+1, r1	; 0x01
 b0c:	18 82       	st	Y, r1
 b0e:	c5 58       	subi	r28, 0x85	; 133
 b10:	d0 40       	sbci	r29, 0x00	; 0
 b12:	8f ef       	ldi	r24, 0xFF	; 255
 b14:	9f ef       	ldi	r25, 0xFF	; 255
 b16:	cd 57       	subi	r28, 0x7D	; 125
 b18:	df 4f       	sbci	r29, 0xFF	; 255
 b1a:	99 83       	std	Y+1, r25	; 0x01
 b1c:	88 83       	st	Y, r24
 b1e:	c3 58       	subi	r28, 0x83	; 131
 b20:	d0 40       	sbci	r29, 0x00	; 0
 b22:	01 e0       	ldi	r16, 0x01	; 1
 b24:	10 e0       	ldi	r17, 0x00	; 0
 b26:	46 2d       	mov	r20, r6
 b28:	92 01       	movw	r18, r4
 b2a:	be 01       	movw	r22, r28
 b2c:	6f 57       	subi	r22, 0x7F	; 127
 b2e:	7f 4f       	sbci	r23, 0xFF	; 255
 b30:	c4 01       	movw	r24, r8
 b32:	0e 94 4b 0b 	call	0x1696	; 0x1696 <__fmt_s>
 b36:	8e 0d       	add	r24, r14
 b38:	9f 1d       	adc	r25, r15
 b3a:	11 c0       	rjmp	.+34     	; 0xb5e <__LOCK_REGION_LENGTH__+0x75e>
 b3c:	c7 56       	subi	r28, 0x67	; 103
 b3e:	df 4f       	sbci	r29, 0xFF	; 255
 b40:	88 81       	ld	r24, Y
 b42:	99 81       	ldd	r25, Y+1	; 0x01
 b44:	aa 81       	ldd	r26, Y+2	; 0x02
 b46:	c9 59       	subi	r28, 0x99	; 153
 b48:	d0 40       	sbci	r29, 0x00	; 0
 b4a:	01 96       	adiw	r24, 0x01	; 1
 b4c:	a1 1d       	adc	r26, r1
 b4e:	c7 56       	subi	r28, 0x67	; 103
 b50:	df 4f       	sbci	r29, 0xFF	; 255
 b52:	88 83       	st	Y, r24
 b54:	99 83       	std	Y+1, r25	; 0x01
 b56:	aa 83       	std	Y+2, r26	; 0x02
 b58:	c9 59       	subi	r28, 0x99	; 153
 b5a:	d0 40       	sbci	r29, 0x00	; 0
 b5c:	c7 01       	movw	r24, r14
 b5e:	71 01       	movw	r14, r2
 b60:	e8 0e       	add	r14, r24
 b62:	f9 1e       	adc	r15, r25
 b64:	e2 14       	cp	r14, r2
 b66:	f3 04       	cpc	r15, r3
 b68:	4c f4       	brge	.+18     	; 0xb7c <__LOCK_REGION_LENGTH__+0x77c>
 b6a:	8f e4       	ldi	r24, 0x4F	; 79
 b6c:	90 e0       	ldi	r25, 0x00	; 0
 b6e:	90 93 29 04 	sts	0x0429, r25	; 0x800429 <__errno_val+0x1>
 b72:	80 93 28 04 	sts	0x0428, r24	; 0x800428 <__errno_val>
 b76:	8f ef       	ldi	r24, 0xFF	; 255
 b78:	9f ef       	ldi	r25, 0xFF	; 255
 b7a:	03 c0       	rjmp	.+6      	; 0xb82 <__LOCK_REGION_LENGTH__+0x782>
 b7c:	17 01       	movw	r2, r14
 b7e:	19 cc       	rjmp	.-1998   	; 0x3b2 <__printf_core+0x58>
 b80:	c1 01       	movw	r24, r2
 b82:	cd 55       	subi	r28, 0x5D	; 93
 b84:	df 4f       	sbci	r29, 0xFF	; 255
 b86:	e2 e1       	ldi	r30, 0x12	; 18
 b88:	0c 94 06 12 	jmp	0x240c	; 0x240c <__epilogue_restores__>

Disassembly of section .text.fputc:

00001bd8 <fputc>:
    1bd8:	0f 93       	push	r16
    1bda:	1f 93       	push	r17
    1bdc:	cf 93       	push	r28
    1bde:	df 93       	push	r29
    1be0:	db 01       	movw	r26, r22
    1be2:	2d 91       	ld	r18, X+
    1be4:	3c 91       	ld	r19, X
    1be6:	11 97       	sbiw	r26, 0x01	; 1
    1be8:	30 ff       	sbrs	r19, 0
    1bea:	25 c0       	rjmp	.+74     	; 0x1c36 <fputc+0x5e>
    1bec:	17 96       	adiw	r26, 0x07	; 7
    1bee:	4d 91       	ld	r20, X+
    1bf0:	5c 91       	ld	r21, X
    1bf2:	18 97       	sbiw	r26, 0x08	; 8
    1bf4:	15 96       	adiw	r26, 0x05	; 5
    1bf6:	2d 91       	ld	r18, X+
    1bf8:	3c 91       	ld	r19, X
    1bfa:	16 97       	sbiw	r26, 0x06	; 6
    1bfc:	42 17       	cp	r20, r18
    1bfe:	53 07       	cpc	r21, r19
    1c00:	78 f4       	brcc	.+30     	; 0x1c20 <fputc+0x48>
    1c02:	12 96       	adiw	r26, 0x02	; 2
    1c04:	ed 91       	ld	r30, X+
    1c06:	fc 91       	ld	r31, X
    1c08:	13 97       	sbiw	r26, 0x03	; 3
    1c0a:	80 83       	st	Z, r24
    1c0c:	12 96       	adiw	r26, 0x02	; 2
    1c0e:	2d 91       	ld	r18, X+
    1c10:	3c 91       	ld	r19, X
    1c12:	13 97       	sbiw	r26, 0x03	; 3
    1c14:	2f 5f       	subi	r18, 0xFF	; 255
    1c16:	3f 4f       	sbci	r19, 0xFF	; 255
    1c18:	13 96       	adiw	r26, 0x03	; 3
    1c1a:	3c 93       	st	X, r19
    1c1c:	2e 93       	st	-X, r18
    1c1e:	12 97       	sbiw	r26, 0x02	; 2
    1c20:	17 96       	adiw	r26, 0x07	; 7
    1c22:	2d 91       	ld	r18, X+
    1c24:	3c 91       	ld	r19, X
    1c26:	18 97       	sbiw	r26, 0x08	; 8
    1c28:	2f 5f       	subi	r18, 0xFF	; 255
    1c2a:	3f 4f       	sbci	r19, 0xFF	; 255
    1c2c:	18 96       	adiw	r26, 0x08	; 8
    1c2e:	3c 93       	st	X, r19
    1c30:	2e 93       	st	-X, r18
    1c32:	17 97       	sbiw	r26, 0x07	; 7
    1c34:	15 c0       	rjmp	.+42     	; 0x1c60 <fputc+0x88>
    1c36:	1d 96       	adiw	r26, 0x0d	; 13
    1c38:	ed 91       	ld	r30, X+
    1c3a:	fc 91       	ld	r31, X
    1c3c:	1e 97       	sbiw	r26, 0x0e	; 14
    1c3e:	30 97       	sbiw	r30, 0x00	; 0
    1c40:	19 f4       	brne	.+6      	; 0x1c48 <fputc+0x70>
    1c42:	8f ef       	ldi	r24, 0xFF	; 255
    1c44:	9f ef       	ldi	r25, 0xFF	; 255
    1c46:	0c c0       	rjmp	.+24     	; 0x1c60 <fputc+0x88>
    1c48:	8b 01       	movw	r16, r22
    1c4a:	ec 01       	movw	r28, r24
    1c4c:	19 95       	eicall
    1c4e:	89 2b       	or	r24, r25
    1c50:	c1 f7       	brne	.-16     	; 0x1c42 <fputc+0x6a>
    1c52:	f8 01       	movw	r30, r16
    1c54:	87 81       	ldd	r24, Z+7	; 0x07
    1c56:	90 85       	ldd	r25, Z+8	; 0x08
    1c58:	01 96       	adiw	r24, 0x01	; 1
    1c5a:	90 87       	std	Z+8, r25	; 0x08
    1c5c:	87 83       	std	Z+7, r24	; 0x07
    1c5e:	ce 01       	movw	r24, r28
    1c60:	df 91       	pop	r29
    1c62:	cf 91       	pop	r28
    1c64:	1f 91       	pop	r17
    1c66:	0f 91       	pop	r16
    1c68:	08 95       	ret

Disassembly of section .text.__fmt_d:

00000fa2 <__fmt_d>:
     fa2:	ad e0       	ldi	r26, 0x0D	; 13
     fa4:	b0 e0       	ldi	r27, 0x00	; 0
     fa6:	e7 ed       	ldi	r30, 0xD7	; 215
     fa8:	f7 e0       	ldi	r31, 0x07	; 7
     faa:	0c 94 cf 11 	jmp	0x239e	; 0x239e <__prologue_saves__>
     fae:	9a 87       	std	Y+10, r25	; 0x0a
     fb0:	89 87       	std	Y+9, r24	; 0x09
     fb2:	7c 83       	std	Y+4, r23	; 0x04
     fb4:	6b 83       	std	Y+3, r22	; 0x03
     fb6:	fa 01       	movw	r30, r20
     fb8:	db 01       	movw	r26, r22
     fba:	12 96       	adiw	r26, 0x02	; 2
     fbc:	cd 90       	ld	r12, X+
     fbe:	dc 90       	ld	r13, X
     fc0:	13 97       	sbiw	r26, 0x03	; 3
     fc2:	14 96       	adiw	r26, 0x04	; 4
     fc4:	8d 91       	ld	r24, X+
     fc6:	9c 91       	ld	r25, X
     fc8:	15 97       	sbiw	r26, 0x05	; 5
     fca:	9e 83       	std	Y+6, r25	; 0x06
     fcc:	8d 83       	std	Y+5, r24	; 0x05
     fce:	ed 90       	ld	r14, X+
     fd0:	fc 90       	ld	r15, X
     fd2:	11 97       	sbiw	r26, 0x01	; 1
     fd4:	fa 82       	std	Y+2, r15	; 0x02
     fd6:	e9 82       	std	Y+1, r14	; 0x01
     fd8:	16 96       	adiw	r26, 0x06	; 6
     fda:	0d 90       	ld	r0, X+
     fdc:	bc 91       	ld	r27, X
     fde:	a0 2d       	mov	r26, r0
     fe0:	b8 87       	std	Y+8, r27	; 0x08
     fe2:	af 83       	std	Y+7, r26	; 0x07
     fe4:	20 80       	ld	r2, Z
     fe6:	31 80       	ldd	r3, Z+1	; 0x01
     fe8:	42 80       	ldd	r4, Z+2	; 0x02
     fea:	53 80       	ldd	r5, Z+3	; 0x03
     fec:	64 80       	ldd	r6, Z+4	; 0x04
     fee:	75 80       	ldd	r7, Z+5	; 0x05
     ff0:	86 80       	ldd	r8, Z+6	; 0x06
     ff2:	97 80       	ldd	r9, Z+7	; 0x07
     ff4:	81 01       	movw	r16, r2
     ff6:	b4 2d       	mov	r27, r4
     ff8:	f5 2d       	mov	r31, r5
     ffa:	e6 2d       	mov	r30, r6
     ffc:	7b 86       	std	Y+11, r7	; 0x0b
     ffe:	8c 86       	std	Y+12, r8	; 0x0c
    1000:	9d 86       	std	Y+13, r9	; 0x0d
    1002:	91 01       	movw	r18, r2
    1004:	a2 01       	movw	r20, r4
    1006:	b3 01       	movw	r22, r6
    1008:	c4 01       	movw	r24, r8
    100a:	a0 e0       	ldi	r26, 0x00	; 0
    100c:	0e 94 d4 12 	call	0x25a8	; 0x25a8 <__cmpdi2_s8>
    1010:	4c f4       	brge	.+18     	; 0x1024 <__EEPROM_REGION_LENGTH__+0x24>
    1012:	0e 94 9c 12 	call	0x2538	; 0x2538 <__negdi2>
    1016:	89 01       	movw	r16, r18
    1018:	b4 2f       	mov	r27, r20
    101a:	f5 2f       	mov	r31, r21
    101c:	e6 2f       	mov	r30, r22
    101e:	7b 87       	std	Y+11, r23	; 0x0b
    1020:	8c 87       	std	Y+12, r24	; 0x0c
    1022:	9d 87       	std	Y+13, r25	; 0x0d
    1024:	d7 fc       	sbrc	r13, 7
    1026:	04 c0       	rjmp	.+8      	; 0x1030 <__EEPROM_REGION_LENGTH__+0x30>
    1028:	e8 94       	clt
    102a:	e1 f8       	bld	r14, 1
    102c:	fa 82       	std	Y+2, r15	; 0x02
    102e:	e9 82       	std	Y+1, r14	; 0x01
    1030:	91 01       	movw	r18, r2
    1032:	a2 01       	movw	r20, r4
    1034:	b3 01       	movw	r22, r6
    1036:	c4 01       	movw	r24, r8
    1038:	a0 e0       	ldi	r26, 0x00	; 0
    103a:	ed 80       	ldd	r14, Y+5	; 0x05
    103c:	fe 80       	ldd	r15, Y+6	; 0x06
    103e:	0e 94 d4 12 	call	0x25a8	; 0x25a8 <__cmpdi2_s8>
    1042:	1c f0       	brlt	.+6      	; 0x104a <__EEPROM_REGION_LENGTH__+0x4a>
    1044:	89 81       	ldd	r24, Y+1	; 0x01
    1046:	82 ff       	sbrs	r24, 2
    1048:	04 c0       	rjmp	.+8      	; 0x1052 <__EEPROM_REGION_LENGTH__+0x52>
    104a:	81 e0       	ldi	r24, 0x01	; 1
    104c:	e8 1a       	sub	r14, r24
    104e:	f1 08       	sbc	r15, r1
    1050:	05 c0       	rjmp	.+10     	; 0x105c <__EEPROM_REGION_LENGTH__+0x5c>
    1052:	83 ff       	sbrs	r24, 3
    1054:	03 c0       	rjmp	.+6      	; 0x105c <__EEPROM_REGION_LENGTH__+0x5c>
    1056:	91 e0       	ldi	r25, 0x01	; 1
    1058:	e9 1a       	sub	r14, r25
    105a:	f1 08       	sbc	r15, r1
    105c:	ce 01       	movw	r24, r28
    105e:	01 96       	adiw	r24, 0x01	; 1
    1060:	5c 01       	movw	r10, r24
    1062:	8a e0       	ldi	r24, 0x0A	; 10
    1064:	c8 2e       	mov	r12, r24
    1066:	d1 2c       	mov	r13, r1
    1068:	2b 2f       	mov	r18, r27
    106a:	3f 2f       	mov	r19, r31
    106c:	4e 2f       	mov	r20, r30
    106e:	5b 85       	ldd	r21, Y+11	; 0x0b
    1070:	6c 85       	ldd	r22, Y+12	; 0x0c
    1072:	7d 85       	ldd	r23, Y+13	; 0x0d
    1074:	8b 81       	ldd	r24, Y+3	; 0x03
    1076:	9c 81       	ldd	r25, Y+4	; 0x04
    1078:	0e 94 49 09 	call	0x1292	; 0x1292 <__cvt_u>
    107c:	fc 01       	movw	r30, r24
    107e:	91 01       	movw	r18, r2
    1080:	a2 01       	movw	r20, r4
    1082:	b3 01       	movw	r22, r6
    1084:	c4 01       	movw	r24, r8
    1086:	a0 e0       	ldi	r26, 0x00	; 0
    1088:	0e 94 d4 12 	call	0x25a8	; 0x25a8 <__cmpdi2_s8>
    108c:	1c f0       	brlt	.+6      	; 0x1094 <__EEPROM_REGION_LENGTH__+0x94>
    108e:	89 81       	ldd	r24, Y+1	; 0x01
    1090:	82 ff       	sbrs	r24, 2
    1092:	12 c0       	rjmp	.+36     	; 0x10b8 <__EEPROM_REGION_LENGTH__+0xb8>
    1094:	31 97       	sbiw	r30, 0x01	; 1
    1096:	0f 81       	ldd	r16, Y+7	; 0x07
    1098:	18 85       	ldd	r17, Y+8	; 0x08
    109a:	0e 0f       	add	r16, r30
    109c:	1f 1f       	adc	r17, r31
    109e:	91 01       	movw	r18, r2
    10a0:	a2 01       	movw	r20, r4
    10a2:	b3 01       	movw	r22, r6
    10a4:	c4 01       	movw	r24, r8
    10a6:	a0 e0       	ldi	r26, 0x00	; 0
    10a8:	0e 94 d4 12 	call	0x25a8	; 0x25a8 <__cmpdi2_s8>
    10ac:	14 f0       	brlt	.+4      	; 0x10b2 <__EEPROM_REGION_LENGTH__+0xb2>
    10ae:	8b e2       	ldi	r24, 0x2B	; 43
    10b0:	01 c0       	rjmp	.+2      	; 0x10b4 <__EEPROM_REGION_LENGTH__+0xb4>
    10b2:	8d e2       	ldi	r24, 0x2D	; 45
    10b4:	d8 01       	movw	r26, r16
    10b6:	08 c0       	rjmp	.+16     	; 0x10c8 <__EEPROM_REGION_LENGTH__+0xc8>
    10b8:	83 ff       	sbrs	r24, 3
    10ba:	07 c0       	rjmp	.+14     	; 0x10ca <__EEPROM_REGION_LENGTH__+0xca>
    10bc:	31 97       	sbiw	r30, 0x01	; 1
    10be:	af 81       	ldd	r26, Y+7	; 0x07
    10c0:	b8 85       	ldd	r27, Y+8	; 0x08
    10c2:	ae 0f       	add	r26, r30
    10c4:	bf 1f       	adc	r27, r31
    10c6:	80 e2       	ldi	r24, 0x20	; 32
    10c8:	8c 93       	st	X, r24
    10ca:	e9 80       	ldd	r14, Y+1	; 0x01
    10cc:	fa 80       	ldd	r15, Y+2	; 0x02
    10ce:	ab 81       	ldd	r26, Y+3	; 0x03
    10d0:	bc 81       	ldd	r27, Y+4	; 0x04
    10d2:	18 96       	adiw	r26, 0x08	; 8
    10d4:	2d 91       	ld	r18, X+
    10d6:	3c 91       	ld	r19, X
    10d8:	19 97       	sbiw	r26, 0x09	; 9
    10da:	21 50       	subi	r18, 0x01	; 1
    10dc:	31 09       	sbc	r19, r1
    10de:	2e 1b       	sub	r18, r30
    10e0:	3f 0b       	sbc	r19, r31
    10e2:	8f 81       	ldd	r24, Y+7	; 0x07
    10e4:	98 85       	ldd	r25, Y+8	; 0x08
    10e6:	e8 0f       	add	r30, r24
    10e8:	f9 1f       	adc	r31, r25
    10ea:	af 01       	movw	r20, r30
    10ec:	60 e8       	ldi	r22, 0x80	; 128
    10ee:	0d 81       	ldd	r16, Y+5	; 0x05
    10f0:	1e 81       	ldd	r17, Y+6	; 0x06
    10f2:	89 85       	ldd	r24, Y+9	; 0x09
    10f4:	9a 85       	ldd	r25, Y+10	; 0x0a
    10f6:	0e 94 ee 09 	call	0x13dc	; 0x13dc <__pad>
    10fa:	9c 01       	movw	r18, r24
    10fc:	a9 85       	ldd	r26, Y+9	; 0x09
    10fe:	ba 85       	ldd	r27, Y+10	; 0x0a
    1100:	8d 91       	ld	r24, X+
    1102:	9c 91       	ld	r25, X
    1104:	90 ff       	sbrs	r25, 0
    1106:	07 c0       	rjmp	.+14     	; 0x1116 <__EEPROM_REGION_LENGTH__+0x116>
    1108:	eb 81       	ldd	r30, Y+3	; 0x03
    110a:	fc 81       	ldd	r31, Y+4	; 0x04
    110c:	82 81       	ldd	r24, Z+2	; 0x02
    110e:	93 81       	ldd	r25, Z+3	; 0x03
    1110:	82 17       	cp	r24, r18
    1112:	93 07       	cpc	r25, r19
    1114:	0c f4       	brge	.+2      	; 0x1118 <__EEPROM_REGION_LENGTH__+0x118>
    1116:	c9 01       	movw	r24, r18
    1118:	2d 96       	adiw	r28, 0x0d	; 13
    111a:	e2 e1       	ldi	r30, 0x12	; 18
    111c:	0c 94 06 12 	jmp	0x240c	; 0x240c <__epilogue_restores__>

Disassembly of section .text.__fmt_o:

000015c2 <__fmt_o>:
    15c2:	a2 e0       	ldi	r26, 0x02	; 2
    15c4:	b0 e0       	ldi	r27, 0x00	; 0
    15c6:	e7 ee       	ldi	r30, 0xE7	; 231
    15c8:	fa e0       	ldi	r31, 0x0A	; 10
    15ca:	0c 94 cf 11 	jmp	0x239e	; 0x239e <__prologue_saves__>
    15ce:	1c 01       	movw	r2, r24
    15d0:	4b 01       	movw	r8, r22
    15d2:	fa 01       	movw	r30, r20
    15d4:	db 01       	movw	r26, r22
    15d6:	12 96       	adiw	r26, 0x02	; 2
    15d8:	2d 91       	ld	r18, X+
    15da:	3c 91       	ld	r19, X
    15dc:	13 97       	sbiw	r26, 0x03	; 3
    15de:	14 96       	adiw	r26, 0x04	; 4
    15e0:	4d 90       	ld	r4, X+
    15e2:	5c 90       	ld	r5, X
    15e4:	15 97       	sbiw	r26, 0x05	; 5
    15e6:	8d 91       	ld	r24, X+
    15e8:	9c 91       	ld	r25, X
    15ea:	11 97       	sbiw	r26, 0x01	; 1
    15ec:	9a 83       	std	Y+2, r25	; 0x02
    15ee:	89 83       	std	Y+1, r24	; 0x01
    15f0:	16 96       	adiw	r26, 0x06	; 6
    15f2:	6d 90       	ld	r6, X+
    15f4:	7c 90       	ld	r7, X
    15f6:	17 97       	sbiw	r26, 0x07	; 7
    15f8:	37 fd       	sbrc	r19, 7
    15fa:	03 c0       	rjmp	.+6      	; 0x1602 <__fmt_o+0x40>
    15fc:	8d 7f       	andi	r24, 0xFD	; 253
    15fe:	9a 83       	std	Y+2, r25	; 0x02
    1600:	89 83       	std	Y+1, r24	; 0x01
    1602:	00 81       	ld	r16, Z
    1604:	11 81       	ldd	r17, Z+1	; 0x01
    1606:	22 81       	ldd	r18, Z+2	; 0x02
    1608:	33 81       	ldd	r19, Z+3	; 0x03
    160a:	44 81       	ldd	r20, Z+4	; 0x04
    160c:	55 81       	ldd	r21, Z+5	; 0x05
    160e:	66 81       	ldd	r22, Z+6	; 0x06
    1610:	77 81       	ldd	r23, Z+7	; 0x07
    1612:	fe 01       	movw	r30, r28
    1614:	31 96       	adiw	r30, 0x01	; 1
    1616:	5f 01       	movw	r10, r30
    1618:	88 e0       	ldi	r24, 0x08	; 8
    161a:	c8 2e       	mov	r12, r24
    161c:	d1 2c       	mov	r13, r1
    161e:	72 01       	movw	r14, r4
    1620:	c4 01       	movw	r24, r8
    1622:	0e 94 49 09 	call	0x1292	; 0x1292 <__cvt_u>
    1626:	29 81       	ldd	r18, Y+1	; 0x01
    1628:	24 ff       	sbrs	r18, 4
    162a:	06 c0       	rjmp	.+12     	; 0x1638 <__fmt_o+0x76>
    162c:	01 97       	sbiw	r24, 0x01	; 1
    162e:	f3 01       	movw	r30, r6
    1630:	e8 0f       	add	r30, r24
    1632:	f9 1f       	adc	r31, r25
    1634:	20 e3       	ldi	r18, 0x30	; 48
    1636:	20 83       	st	Z, r18
    1638:	29 81       	ldd	r18, Y+1	; 0x01
    163a:	23 ff       	sbrs	r18, 3
    163c:	06 c0       	rjmp	.+12     	; 0x164a <__fmt_o+0x88>
    163e:	01 97       	sbiw	r24, 0x01	; 1
    1640:	f3 01       	movw	r30, r6
    1642:	e8 0f       	add	r30, r24
    1644:	f9 1f       	adc	r31, r25
    1646:	20 e2       	ldi	r18, 0x20	; 32
    1648:	20 83       	st	Z, r18
    164a:	e9 80       	ldd	r14, Y+1	; 0x01
    164c:	fa 80       	ldd	r15, Y+2	; 0x02
    164e:	d4 01       	movw	r26, r8
    1650:	18 96       	adiw	r26, 0x08	; 8
    1652:	2d 91       	ld	r18, X+
    1654:	3c 91       	ld	r19, X
    1656:	19 97       	sbiw	r26, 0x09	; 9
    1658:	21 50       	subi	r18, 0x01	; 1
    165a:	31 09       	sbc	r19, r1
    165c:	28 1b       	sub	r18, r24
    165e:	39 0b       	sbc	r19, r25
    1660:	86 0d       	add	r24, r6
    1662:	97 1d       	adc	r25, r7
    1664:	ac 01       	movw	r20, r24
    1666:	60 e8       	ldi	r22, 0x80	; 128
    1668:	82 01       	movw	r16, r4
    166a:	c1 01       	movw	r24, r2
    166c:	0e 94 ee 09 	call	0x13dc	; 0x13dc <__pad>
    1670:	9c 01       	movw	r18, r24
    1672:	f1 01       	movw	r30, r2
    1674:	80 81       	ld	r24, Z
    1676:	91 81       	ldd	r25, Z+1	; 0x01
    1678:	90 ff       	sbrs	r25, 0
    167a:	08 c0       	rjmp	.+16     	; 0x168c <__fmt_o+0xca>
    167c:	d4 01       	movw	r26, r8
    167e:	12 96       	adiw	r26, 0x02	; 2
    1680:	8d 91       	ld	r24, X+
    1682:	9c 91       	ld	r25, X
    1684:	13 97       	sbiw	r26, 0x03	; 3
    1686:	82 17       	cp	r24, r18
    1688:	93 07       	cpc	r25, r19
    168a:	0c f4       	brge	.+2      	; 0x168e <__fmt_o+0xcc>
    168c:	c9 01       	movw	r24, r18
    168e:	22 96       	adiw	r28, 0x02	; 2
    1690:	e2 e1       	ldi	r30, 0x12	; 18
    1692:	0c 94 06 12 	jmp	0x240c	; 0x240c <__epilogue_restores__>

Disassembly of section .text.__cvt_u:

00001292 <__cvt_u>:
    1292:	a2 e1       	ldi	r26, 0x12	; 18
    1294:	b0 e0       	ldi	r27, 0x00	; 0
    1296:	ef e4       	ldi	r30, 0x4F	; 79
    1298:	f9 e0       	ldi	r31, 0x09	; 9
    129a:	0c 94 cf 11 	jmp	0x239e	; 0x239e <__prologue_saves__>
    129e:	fc 01       	movw	r30, r24
    12a0:	0a 8b       	std	Y+18, r16	; 0x12
    12a2:	1b 83       	std	Y+3, r17	; 0x03
    12a4:	2c 83       	std	Y+4, r18	; 0x04
    12a6:	73 2e       	mov	r7, r19
    12a8:	64 2e       	mov	r6, r20
    12aa:	55 2e       	mov	r5, r21
    12ac:	46 2e       	mov	r4, r22
    12ae:	7d 83       	std	Y+5, r23	; 0x05
    12b0:	cc 86       	std	Y+12, r12	; 0x0c
    12b2:	d8 86       	std	Y+8, r13	; 0x08
    12b4:	bf 82       	std	Y+7, r11	; 0x07
    12b6:	ae 82       	std	Y+6, r10	; 0x06
    12b8:	86 81       	ldd	r24, Z+6	; 0x06
    12ba:	97 81       	ldd	r25, Z+7	; 0x07
    12bc:	9b 87       	std	Y+11, r25	; 0x0b
    12be:	8a 87       	std	Y+10, r24	; 0x0a
    12c0:	d5 01       	movw	r26, r10
    12c2:	4d 91       	ld	r20, X+
    12c4:	5c 91       	ld	r21, X
    12c6:	22 81       	ldd	r18, Z+2	; 0x02
    12c8:	33 81       	ldd	r19, Z+3	; 0x03
    12ca:	80 85       	ldd	r24, Z+8	; 0x08
    12cc:	91 85       	ldd	r25, Z+9	; 0x09
    12ce:	01 97       	sbiw	r24, 0x01	; 1
    12d0:	1c 01       	movw	r2, r24
    12d2:	37 ff       	sbrs	r19, 7
    12d4:	02 c0       	rjmp	.+4      	; 0x12da <__cvt_u+0x48>
    12d6:	21 e0       	ldi	r18, 0x01	; 1
    12d8:	30 e0       	ldi	r19, 0x00	; 0
    12da:	ea 85       	ldd	r30, Y+10	; 0x0a
    12dc:	fb 85       	ldd	r31, Y+11	; 0x0b
    12de:	e8 0f       	add	r30, r24
    12e0:	f9 1f       	adc	r31, r25
    12e2:	10 82       	st	Z, r1
    12e4:	47 01       	movw	r8, r14
    12e6:	e1 e0       	ldi	r30, 0x01	; 1
    12e8:	f0 e0       	ldi	r31, 0x00	; 0
    12ea:	fa 83       	std	Y+2, r31	; 0x02
    12ec:	e9 83       	std	Y+1, r30	; 0x01
    12ee:	c9 01       	movw	r24, r18
    12f0:	8e 19       	sub	r24, r14
    12f2:	9f 09       	sbc	r25, r15
    12f4:	9e 87       	std	Y+14, r25	; 0x0e
    12f6:	8d 87       	std	Y+13, r24	; 0x0d
    12f8:	da 01       	movw	r26, r20
    12fa:	a2 70       	andi	r26, 0x02	; 2
    12fc:	bb 27       	eor	r27, r27
    12fe:	b8 8b       	std	Y+16, r27	; 0x10
    1300:	af 87       	std	Y+15, r26	; 0x0f
    1302:	b8 85       	ldd	r27, Y+8	; 0x08
    1304:	bb 0f       	add	r27, r27
    1306:	bb 0b       	sbc	r27, r27
    1308:	b9 8b       	std	Y+17, r27	; 0x11
    130a:	12 14       	cp	r1, r2
    130c:	13 04       	cpc	r1, r3
    130e:	74 f0       	brlt	.+28     	; 0x132c <__cvt_u+0x9a>
    1310:	a9 81       	ldd	r26, Y+1	; 0x01
    1312:	ba 81       	ldd	r27, Y+2	; 0x02
    1314:	ab 2b       	or	r26, r27
    1316:	09 f0       	breq	.+2      	; 0x131a <__cvt_u+0x88>
    1318:	5c c0       	rjmp	.+184    	; 0x13d2 <__cvt_u+0x140>
    131a:	ae 81       	ldd	r26, Y+6	; 0x06
    131c:	bf 81       	ldd	r27, Y+7	; 0x07
    131e:	8d 91       	ld	r24, X+
    1320:	9c 91       	ld	r25, X
    1322:	11 97       	sbiw	r26, 0x01	; 1
    1324:	8f 7e       	andi	r24, 0xEF	; 239
    1326:	8d 93       	st	X+, r24
    1328:	9c 93       	st	X, r25
    132a:	53 c0       	rjmp	.+166    	; 0x13d2 <__cvt_u+0x140>
    132c:	2a 89       	ldd	r18, Y+18	; 0x12
    132e:	3b 81       	ldd	r19, Y+3	; 0x03
    1330:	4c 81       	ldd	r20, Y+4	; 0x04
    1332:	57 2d       	mov	r21, r7
    1334:	66 2d       	mov	r22, r6
    1336:	75 2d       	mov	r23, r5
    1338:	84 2d       	mov	r24, r4
    133a:	9d 81       	ldd	r25, Y+5	; 0x05
    133c:	a0 e0       	ldi	r26, 0x00	; 0
    133e:	0e 94 d4 12 	call	0x25a8	; 0x25a8 <__cmpdi2_s8>
    1342:	b1 f1       	breq	.+108    	; 0x13b0 <__cvt_u+0x11e>
    1344:	e1 e0       	ldi	r30, 0x01	; 1
    1346:	2e 1a       	sub	r2, r30
    1348:	31 08       	sbc	r3, r1
    134a:	fc 85       	ldd	r31, Y+12	; 0x0c
    134c:	f9 87       	std	Y+9, r31	; 0x09
    134e:	af 2e       	mov	r10, r31
    1350:	b8 84       	ldd	r11, Y+8	; 0x08
    1352:	c9 88       	ldd	r12, Y+17	; 0x11
    1354:	dc 2c       	mov	r13, r12
    1356:	ec 2c       	mov	r14, r12
    1358:	fc 2c       	mov	r15, r12
    135a:	0c 2d       	mov	r16, r12
    135c:	1c 2d       	mov	r17, r12
    135e:	2a 89       	ldd	r18, Y+18	; 0x12
    1360:	3b 81       	ldd	r19, Y+3	; 0x03
    1362:	4c 81       	ldd	r20, Y+4	; 0x04
    1364:	57 2d       	mov	r21, r7
    1366:	66 2d       	mov	r22, r6
    1368:	75 2d       	mov	r23, r5
    136a:	84 2d       	mov	r24, r4
    136c:	9d 81       	ldd	r25, Y+5	; 0x05
    136e:	0e 94 ac 12 	call	0x2558	; 0x2558 <__umoddi3>
    1372:	c9 01       	movw	r24, r18
    1374:	29 83       	std	Y+1, r18	; 0x01
    1376:	9a 83       	std	Y+2, r25	; 0x02
    1378:	ea 85       	ldd	r30, Y+10	; 0x0a
    137a:	fb 85       	ldd	r31, Y+11	; 0x0b
    137c:	e2 0d       	add	r30, r2
    137e:	f3 1d       	adc	r31, r3
    1380:	80 5d       	subi	r24, 0xD0	; 208
    1382:	80 83       	st	Z, r24
    1384:	81 e0       	ldi	r24, 0x01	; 1
    1386:	88 1a       	sub	r8, r24
    1388:	91 08       	sbc	r9, r1
    138a:	2a 89       	ldd	r18, Y+18	; 0x12
    138c:	3b 81       	ldd	r19, Y+3	; 0x03
    138e:	4c 81       	ldd	r20, Y+4	; 0x04
    1390:	57 2d       	mov	r21, r7
    1392:	66 2d       	mov	r22, r6
    1394:	75 2d       	mov	r23, r5
    1396:	84 2d       	mov	r24, r4
    1398:	9d 81       	ldd	r25, Y+5	; 0x05
    139a:	0e 94 ae 12 	call	0x255c	; 0x255c <__udivdi3>
    139e:	2a 8b       	std	Y+18, r18	; 0x12
    13a0:	3b 83       	std	Y+3, r19	; 0x03
    13a2:	4c 83       	std	Y+4, r20	; 0x04
    13a4:	75 2e       	mov	r7, r21
    13a6:	66 2e       	mov	r6, r22
    13a8:	57 2e       	mov	r5, r23
    13aa:	48 2e       	mov	r4, r24
    13ac:	9d 83       	std	Y+5, r25	; 0x05
    13ae:	ad cf       	rjmp	.-166    	; 0x130a <__cvt_u+0x78>
    13b0:	8d 85       	ldd	r24, Y+13	; 0x0d
    13b2:	9e 85       	ldd	r25, Y+14	; 0x0e
    13b4:	88 0d       	add	r24, r8
    13b6:	99 1d       	adc	r25, r9
    13b8:	18 16       	cp	r1, r24
    13ba:	19 06       	cpc	r1, r25
    13bc:	1c f2       	brlt	.-122    	; 0x1344 <__cvt_u+0xb2>
    13be:	18 14       	cp	r1, r8
    13c0:	19 04       	cpc	r1, r9
    13c2:	0c f0       	brlt	.+2      	; 0x13c6 <__cvt_u+0x134>
    13c4:	a5 cf       	rjmp	.-182    	; 0x1310 <__cvt_u+0x7e>
    13c6:	ef 85       	ldd	r30, Y+15	; 0x0f
    13c8:	f8 89       	ldd	r31, Y+16	; 0x10
    13ca:	ef 2b       	or	r30, r31
    13cc:	09 f0       	breq	.+2      	; 0x13d0 <__cvt_u+0x13e>
    13ce:	ba cf       	rjmp	.-140    	; 0x1344 <__cvt_u+0xb2>
    13d0:	9f cf       	rjmp	.-194    	; 0x1310 <__cvt_u+0x7e>
    13d2:	c1 01       	movw	r24, r2
    13d4:	62 96       	adiw	r28, 0x12	; 18
    13d6:	e2 e1       	ldi	r30, 0x12	; 18
    13d8:	0c 94 06 12 	jmp	0x240c	; 0x240c <__epilogue_restores__>

Disassembly of section .text.__fmt_u:

00001760 <__fmt_u>:
    1760:	a2 e0       	ldi	r26, 0x02	; 2
    1762:	b0 e0       	ldi	r27, 0x00	; 0
    1764:	e6 eb       	ldi	r30, 0xB6	; 182
    1766:	fb e0       	ldi	r31, 0x0B	; 11
    1768:	0c 94 cf 11 	jmp	0x239e	; 0x239e <__prologue_saves__>
    176c:	3c 01       	movw	r6, r24
    176e:	4b 01       	movw	r8, r22
    1770:	fa 01       	movw	r30, r20
    1772:	db 01       	movw	r26, r22
    1774:	12 96       	adiw	r26, 0x02	; 2
    1776:	2d 91       	ld	r18, X+
    1778:	3c 91       	ld	r19, X
    177a:	13 97       	sbiw	r26, 0x03	; 3
    177c:	14 96       	adiw	r26, 0x04	; 4
    177e:	4d 90       	ld	r4, X+
    1780:	5c 90       	ld	r5, X
    1782:	15 97       	sbiw	r26, 0x05	; 5
    1784:	8d 91       	ld	r24, X+
    1786:	9c 91       	ld	r25, X
    1788:	11 97       	sbiw	r26, 0x01	; 1
    178a:	9a 83       	std	Y+2, r25	; 0x02
    178c:	89 83       	std	Y+1, r24	; 0x01
    178e:	16 96       	adiw	r26, 0x06	; 6
    1790:	2d 90       	ld	r2, X+
    1792:	3c 90       	ld	r3, X
    1794:	17 97       	sbiw	r26, 0x07	; 7
    1796:	37 fd       	sbrc	r19, 7
    1798:	03 c0       	rjmp	.+6      	; 0x17a0 <__fmt_u+0x40>
    179a:	8d 7f       	andi	r24, 0xFD	; 253
    179c:	9a 83       	std	Y+2, r25	; 0x02
    179e:	89 83       	std	Y+1, r24	; 0x01
    17a0:	00 81       	ld	r16, Z
    17a2:	11 81       	ldd	r17, Z+1	; 0x01
    17a4:	22 81       	ldd	r18, Z+2	; 0x02
    17a6:	33 81       	ldd	r19, Z+3	; 0x03
    17a8:	44 81       	ldd	r20, Z+4	; 0x04
    17aa:	55 81       	ldd	r21, Z+5	; 0x05
    17ac:	66 81       	ldd	r22, Z+6	; 0x06
    17ae:	77 81       	ldd	r23, Z+7	; 0x07
    17b0:	fe 01       	movw	r30, r28
    17b2:	31 96       	adiw	r30, 0x01	; 1
    17b4:	5f 01       	movw	r10, r30
    17b6:	8a e0       	ldi	r24, 0x0A	; 10
    17b8:	c8 2e       	mov	r12, r24
    17ba:	d1 2c       	mov	r13, r1
    17bc:	72 01       	movw	r14, r4
    17be:	c4 01       	movw	r24, r8
    17c0:	0e 94 49 09 	call	0x1292	; 0x1292 <__cvt_u>
    17c4:	e9 80       	ldd	r14, Y+1	; 0x01
    17c6:	fa 80       	ldd	r15, Y+2	; 0x02
    17c8:	d4 01       	movw	r26, r8
    17ca:	18 96       	adiw	r26, 0x08	; 8
    17cc:	2d 91       	ld	r18, X+
    17ce:	3c 91       	ld	r19, X
    17d0:	19 97       	sbiw	r26, 0x09	; 9
    17d2:	21 50       	subi	r18, 0x01	; 1
    17d4:	31 09       	sbc	r19, r1
    17d6:	28 1b       	sub	r18, r24
    17d8:	39 0b       	sbc	r19, r25
    17da:	82 0d       	add	r24, r2
    17dc:	93 1d       	adc	r25, r3
    17de:	ac 01       	movw	r20, r24
    17e0:	60 e8       	ldi	r22, 0x80	; 128
    17e2:	82 01       	movw	r16, r4
    17e4:	c3 01       	movw	r24, r6
    17e6:	0e 94 ee 09 	call	0x13dc	; 0x13dc <__pad>
    17ea:	9c 01       	movw	r18, r24
    17ec:	f3 01       	movw	r30, r6
    17ee:	80 81       	ld	r24, Z
    17f0:	91 81       	ldd	r25, Z+1	; 0x01
    17f2:	90 ff       	sbrs	r25, 0
    17f4:	08 c0       	rjmp	.+16     	; 0x1806 <__fmt_u+0xa6>
    17f6:	d4 01       	movw	r26, r8
    17f8:	12 96       	adiw	r26, 0x02	; 2
    17fa:	8d 91       	ld	r24, X+
    17fc:	9c 91       	ld	r25, X
    17fe:	13 97       	sbiw	r26, 0x03	; 3
    1800:	82 17       	cp	r24, r18
    1802:	93 07       	cpc	r25, r19
    1804:	0c f4       	brge	.+2      	; 0x1808 <__fmt_u+0xa8>
    1806:	c9 01       	movw	r24, r18
    1808:	22 96       	adiw	r28, 0x02	; 2
    180a:	e2 e1       	ldi	r30, 0x12	; 18
    180c:	0c 94 06 12 	jmp	0x240c	; 0x240c <__epilogue_restores__>

Disassembly of section .text.__fmt_x:

00000b8c <__fmt_x>:
 b8c:	a4 e1       	ldi	r26, 0x14	; 20
 b8e:	b0 e0       	ldi	r27, 0x00	; 0
 b90:	ec ec       	ldi	r30, 0xCC	; 204
 b92:	f5 e0       	ldi	r31, 0x05	; 5
 b94:	0c 94 cf 11 	jmp	0x239e	; 0x239e <__prologue_saves__>
 b98:	98 87       	std	Y+8, r25	; 0x08
 b9a:	8f 83       	std	Y+7, r24	; 0x07
 b9c:	7a 83       	std	Y+2, r23	; 0x02
 b9e:	69 83       	std	Y+1, r22	; 0x01
 ba0:	5c 8b       	std	Y+20, r21	; 0x14
 ba2:	4b 8b       	std	Y+19, r20	; 0x13
 ba4:	12 2f       	mov	r17, r18
 ba6:	db 01       	movw	r26, r22
 ba8:	12 96       	adiw	r26, 0x02	; 2
 baa:	ed 91       	ld	r30, X+
 bac:	fc 91       	ld	r31, X
 bae:	13 97       	sbiw	r26, 0x03	; 3
 bb0:	14 96       	adiw	r26, 0x04	; 4
 bb2:	2d 91       	ld	r18, X+
 bb4:	3c 91       	ld	r19, X
 bb6:	15 97       	sbiw	r26, 0x05	; 5
 bb8:	3e 83       	std	Y+6, r19	; 0x06
 bba:	2d 83       	std	Y+5, r18	; 0x05
 bbc:	ed 90       	ld	r14, X+
 bbe:	fc 90       	ld	r15, X
 bc0:	11 97       	sbiw	r26, 0x01	; 1
 bc2:	16 96       	adiw	r26, 0x06	; 6
 bc4:	2d 90       	ld	r2, X+
 bc6:	3c 90       	ld	r3, X
 bc8:	17 97       	sbiw	r26, 0x07	; 7
 bca:	f7 fd       	sbrc	r31, 7
 bcc:	03 c0       	rjmp	.+6      	; 0xbd4 <__fmt_x+0x48>
 bce:	e8 94       	clt
 bd0:	e1 f8       	bld	r14, 1
 bd2:	02 c0       	rjmp	.+4      	; 0xbd8 <__fmt_x+0x4c>
 bd4:	e1 e0       	ldi	r30, 0x01	; 1
 bd6:	f0 e0       	ldi	r31, 0x00	; 0
 bd8:	c7 01       	movw	r24, r14
 bda:	80 71       	andi	r24, 0x10	; 16
 bdc:	99 27       	eor	r25, r25
 bde:	9a 87       	std	Y+10, r25	; 0x0a
 be0:	89 87       	std	Y+9, r24	; 0x09
 be2:	e4 fe       	sbrs	r14, 4
 be4:	1f c0       	rjmp	.+62     	; 0xc24 <__fmt_x+0x98>
 be6:	ab 89       	ldd	r26, Y+19	; 0x13
 be8:	bc 89       	ldd	r27, Y+20	; 0x14
 bea:	2c 91       	ld	r18, X
 bec:	11 96       	adiw	r26, 0x01	; 1
 bee:	3c 91       	ld	r19, X
 bf0:	11 97       	sbiw	r26, 0x01	; 1
 bf2:	12 96       	adiw	r26, 0x02	; 2
 bf4:	4c 91       	ld	r20, X
 bf6:	12 97       	sbiw	r26, 0x02	; 2
 bf8:	13 96       	adiw	r26, 0x03	; 3
 bfa:	5c 91       	ld	r21, X
 bfc:	13 97       	sbiw	r26, 0x03	; 3
 bfe:	14 96       	adiw	r26, 0x04	; 4
 c00:	6c 91       	ld	r22, X
 c02:	14 97       	sbiw	r26, 0x04	; 4
 c04:	15 96       	adiw	r26, 0x05	; 5
 c06:	7c 91       	ld	r23, X
 c08:	15 97       	sbiw	r26, 0x05	; 5
 c0a:	16 96       	adiw	r26, 0x06	; 6
 c0c:	8c 91       	ld	r24, X
 c0e:	16 97       	sbiw	r26, 0x06	; 6
 c10:	17 96       	adiw	r26, 0x07	; 7
 c12:	9c 91       	ld	r25, X
 c14:	a0 e0       	ldi	r26, 0x00	; 0
 c16:	0e 94 d4 12 	call	0x25a8	; 0x25a8 <__cmpdi2_s8>
 c1a:	21 f0       	breq	.+8      	; 0xc24 <__fmt_x+0x98>
 c1c:	8d 81       	ldd	r24, Y+5	; 0x05
 c1e:	9e 81       	ldd	r25, Y+6	; 0x06
 c20:	02 97       	sbiw	r24, 0x02	; 2
 c22:	02 c0       	rjmp	.+4      	; 0xc28 <__fmt_x+0x9c>
 c24:	8d 81       	ldd	r24, Y+5	; 0x05
 c26:	9e 81       	ldd	r25, Y+6	; 0x06
 c28:	97 01       	movw	r18, r14
 c2a:	28 70       	andi	r18, 0x08	; 8
 c2c:	33 27       	eor	r19, r19
 c2e:	3c 87       	std	Y+12, r19	; 0x0c
 c30:	2b 87       	std	Y+11, r18	; 0x0b
 c32:	e3 fc       	sbrc	r14, 3
 c34:	01 97       	sbiw	r24, 0x01	; 1
 c36:	ab 89       	ldd	r26, Y+19	; 0x13
 c38:	bc 89       	ldd	r27, Y+20	; 0x14
 c3a:	4c 90       	ld	r4, X
 c3c:	11 96       	adiw	r26, 0x01	; 1
 c3e:	5c 90       	ld	r5, X
 c40:	11 97       	sbiw	r26, 0x01	; 1
 c42:	12 96       	adiw	r26, 0x02	; 2
 c44:	6c 90       	ld	r6, X
 c46:	12 97       	sbiw	r26, 0x02	; 2
 c48:	13 96       	adiw	r26, 0x03	; 3
 c4a:	7c 90       	ld	r7, X
 c4c:	13 97       	sbiw	r26, 0x03	; 3
 c4e:	14 96       	adiw	r26, 0x04	; 4
 c50:	8c 90       	ld	r8, X
 c52:	14 97       	sbiw	r26, 0x04	; 4
 c54:	15 96       	adiw	r26, 0x05	; 5
 c56:	9c 90       	ld	r9, X
 c58:	15 97       	sbiw	r26, 0x05	; 5
 c5a:	16 96       	adiw	r26, 0x06	; 6
 c5c:	ac 90       	ld	r10, X
 c5e:	16 97       	sbiw	r26, 0x06	; 6
 c60:	17 96       	adiw	r26, 0x07	; 7
 c62:	bc 90       	ld	r11, X
 c64:	a9 81       	ldd	r26, Y+1	; 0x01
 c66:	ba 81       	ldd	r27, Y+2	; 0x02
 c68:	18 96       	adiw	r26, 0x08	; 8
 c6a:	cd 90       	ld	r12, X+
 c6c:	dc 90       	ld	r13, X
 c6e:	19 97       	sbiw	r26, 0x09	; 9
 c70:	b1 e0       	ldi	r27, 0x01	; 1
 c72:	cb 1a       	sub	r12, r27
 c74:	d1 08       	sbc	r13, r1
 c76:	d1 01       	movw	r26, r2
 c78:	ac 0d       	add	r26, r12
 c7a:	bd 1d       	adc	r27, r13
 c7c:	1c 92       	st	X, r1
 c7e:	9c 83       	std	Y+4, r25	; 0x04
 c80:	8b 83       	std	Y+3, r24	; 0x03
 c82:	9f 01       	movw	r18, r30
 c84:	28 1b       	sub	r18, r24
 c86:	39 0b       	sbc	r19, r25
 c88:	3e 87       	std	Y+14, r19	; 0x0e
 c8a:	2d 87       	std	Y+13, r18	; 0x0d
 c8c:	c7 01       	movw	r24, r14
 c8e:	82 70       	andi	r24, 0x02	; 2
 c90:	99 27       	eor	r25, r25
 c92:	98 8b       	std	Y+16, r25	; 0x10
 c94:	8f 87       	std	Y+15, r24	; 0x0f
 c96:	81 2f       	mov	r24, r17
 c98:	01 2e       	mov	r0, r17
 c9a:	00 0c       	add	r0, r0
 c9c:	99 0b       	sbc	r25, r25
 c9e:	dc 01       	movw	r26, r24
 ca0:	a1 54       	subi	r26, 0x41	; 65
 ca2:	b1 09       	sbc	r27, r1
 ca4:	ba 8b       	std	Y+18, r27	; 0x12
 ca6:	a9 8b       	std	Y+17, r26	; 0x11
 ca8:	32 e0       	ldi	r19, 0x02	; 2
 caa:	c3 16       	cp	r12, r19
 cac:	d1 04       	cpc	r13, r1
 cae:	34 f4       	brge	.+12     	; 0xcbc <__fmt_x+0x130>
 cb0:	89 85       	ldd	r24, Y+9	; 0x09
 cb2:	9a 85       	ldd	r25, Y+10	; 0x0a
 cb4:	89 2b       	or	r24, r25
 cb6:	09 f0       	breq	.+2      	; 0xcba <__fmt_x+0x12e>
 cb8:	4c c0       	rjmp	.+152    	; 0xd52 <__fmt_x+0x1c6>
 cba:	73 c0       	rjmp	.+230    	; 0xda2 <__fmt_x+0x216>
 cbc:	92 01       	movw	r18, r4
 cbe:	a3 01       	movw	r20, r6
 cc0:	b4 01       	movw	r22, r8
 cc2:	c5 01       	movw	r24, r10
 cc4:	a0 e0       	ldi	r26, 0x00	; 0
 cc6:	0e 94 d4 12 	call	0x25a8	; 0x25a8 <__cmpdi2_s8>
 cca:	81 f1       	breq	.+96     	; 0xd2c <__fmt_x+0x1a0>
 ccc:	b1 e0       	ldi	r27, 0x01	; 1
 cce:	cb 1a       	sub	r12, r27
 cd0:	d1 08       	sbc	r13, r1
 cd2:	c2 01       	movw	r24, r4
 cd4:	8f 70       	andi	r24, 0x0F	; 15
 cd6:	99 27       	eor	r25, r25
 cd8:	8a 30       	cpi	r24, 0x0A	; 10
 cda:	91 05       	cpc	r25, r1
 cdc:	14 f4       	brge	.+4      	; 0xce2 <__fmt_x+0x156>
 cde:	c0 96       	adiw	r24, 0x30	; 48
 ce0:	02 c0       	rjmp	.+4      	; 0xce6 <__fmt_x+0x15a>
 ce2:	89 5a       	subi	r24, 0xA9	; 169
 ce4:	9f 4f       	sbci	r25, 0xFF	; 255
 ce6:	e9 89       	ldd	r30, Y+17	; 0x11
 ce8:	fa 89       	ldd	r31, Y+18	; 0x12
 cea:	7a 97       	sbiw	r30, 0x1a	; 26
 cec:	48 f4       	brcc	.+18     	; 0xd00 <__fmt_x+0x174>
 cee:	9c 01       	movw	r18, r24
 cf0:	20 62       	ori	r18, 0x20	; 32
 cf2:	21 56       	subi	r18, 0x61	; 97
 cf4:	31 09       	sbc	r19, r1
 cf6:	2a 31       	cpi	r18, 0x1A	; 26
 cf8:	31 05       	cpc	r19, r1
 cfa:	10 f4       	brcc	.+4      	; 0xd00 <__fmt_x+0x174>
 cfc:	0e 94 ff 12 	call	0x25fe	; 0x25fe <toupper>
 d00:	f1 01       	movw	r30, r2
 d02:	ec 0d       	add	r30, r12
 d04:	fd 1d       	adc	r31, r13
 d06:	80 83       	st	Z, r24
 d08:	2b 81       	ldd	r18, Y+3	; 0x03
 d0a:	3c 81       	ldd	r19, Y+4	; 0x04
 d0c:	21 50       	subi	r18, 0x01	; 1
 d0e:	31 09       	sbc	r19, r1
 d10:	3c 83       	std	Y+4, r19	; 0x04
 d12:	2b 83       	std	Y+3, r18	; 0x03
 d14:	92 01       	movw	r18, r4
 d16:	a3 01       	movw	r20, r6
 d18:	b4 01       	movw	r22, r8
 d1a:	c5 01       	movw	r24, r10
 d1c:	04 e0       	ldi	r16, 0x04	; 4
 d1e:	0e 94 b3 11 	call	0x2366	; 0x2366 <__lshrdi3>
 d22:	29 01       	movw	r4, r18
 d24:	3a 01       	movw	r6, r20
 d26:	4b 01       	movw	r8, r22
 d28:	5c 01       	movw	r10, r24
 d2a:	be cf       	rjmp	.-132    	; 0xca8 <__fmt_x+0x11c>
 d2c:	8d 85       	ldd	r24, Y+13	; 0x0d
 d2e:	9e 85       	ldd	r25, Y+14	; 0x0e
 d30:	ab 81       	ldd	r26, Y+3	; 0x03
 d32:	bc 81       	ldd	r27, Y+4	; 0x04
 d34:	8a 0f       	add	r24, r26
 d36:	9b 1f       	adc	r25, r27
 d38:	18 16       	cp	r1, r24
 d3a:	19 06       	cpc	r1, r25
 d3c:	3c f2       	brlt	.-114    	; 0xccc <__fmt_x+0x140>
 d3e:	1a 16       	cp	r1, r26
 d40:	1b 06       	cpc	r1, r27
 d42:	0c f0       	brlt	.+2      	; 0xd46 <__fmt_x+0x1ba>
 d44:	b5 cf       	rjmp	.-150    	; 0xcb0 <__fmt_x+0x124>
 d46:	ef 85       	ldd	r30, Y+15	; 0x0f
 d48:	f8 89       	ldd	r31, Y+16	; 0x10
 d4a:	ef 2b       	or	r30, r31
 d4c:	09 f0       	breq	.+2      	; 0xd50 <__fmt_x+0x1c4>
 d4e:	be cf       	rjmp	.-132    	; 0xccc <__fmt_x+0x140>
 d50:	af cf       	rjmp	.-162    	; 0xcb0 <__fmt_x+0x124>
 d52:	ab 89       	ldd	r26, Y+19	; 0x13
 d54:	bc 89       	ldd	r27, Y+20	; 0x14
 d56:	2c 91       	ld	r18, X
 d58:	11 96       	adiw	r26, 0x01	; 1
 d5a:	3c 91       	ld	r19, X
 d5c:	11 97       	sbiw	r26, 0x01	; 1
 d5e:	12 96       	adiw	r26, 0x02	; 2
 d60:	4c 91       	ld	r20, X
 d62:	12 97       	sbiw	r26, 0x02	; 2
 d64:	13 96       	adiw	r26, 0x03	; 3
 d66:	5c 91       	ld	r21, X
 d68:	13 97       	sbiw	r26, 0x03	; 3
 d6a:	14 96       	adiw	r26, 0x04	; 4
 d6c:	6c 91       	ld	r22, X
 d6e:	14 97       	sbiw	r26, 0x04	; 4
 d70:	15 96       	adiw	r26, 0x05	; 5
 d72:	7c 91       	ld	r23, X
 d74:	15 97       	sbiw	r26, 0x05	; 5
 d76:	16 96       	adiw	r26, 0x06	; 6
 d78:	8c 91       	ld	r24, X
 d7a:	16 97       	sbiw	r26, 0x06	; 6
 d7c:	17 96       	adiw	r26, 0x07	; 7
 d7e:	9c 91       	ld	r25, X
 d80:	a0 e0       	ldi	r26, 0x00	; 0
 d82:	0e 94 d4 12 	call	0x25a8	; 0x25a8 <__cmpdi2_s8>
 d86:	69 f0       	breq	.+26     	; 0xda2 <__fmt_x+0x216>
 d88:	f1 01       	movw	r30, r2
 d8a:	ec 0d       	add	r30, r12
 d8c:	fd 1d       	adc	r31, r13
 d8e:	31 97       	sbiw	r30, 0x01	; 1
 d90:	10 83       	st	Z, r17
 d92:	b2 e0       	ldi	r27, 0x02	; 2
 d94:	cb 1a       	sub	r12, r27
 d96:	d1 08       	sbc	r13, r1
 d98:	f1 01       	movw	r30, r2
 d9a:	ec 0d       	add	r30, r12
 d9c:	fd 1d       	adc	r31, r13
 d9e:	80 e3       	ldi	r24, 0x30	; 48
 da0:	80 83       	st	Z, r24
 da2:	eb 85       	ldd	r30, Y+11	; 0x0b
 da4:	fc 85       	ldd	r31, Y+12	; 0x0c
 da6:	ef 2b       	or	r30, r31
 da8:	41 f0       	breq	.+16     	; 0xdba <__fmt_x+0x22e>
 daa:	f1 e0       	ldi	r31, 0x01	; 1
 dac:	cf 1a       	sub	r12, r31
 dae:	d1 08       	sbc	r13, r1
 db0:	f1 01       	movw	r30, r2
 db2:	ec 0d       	add	r30, r12
 db4:	fd 1d       	adc	r31, r13
 db6:	80 e2       	ldi	r24, 0x20	; 32
 db8:	80 83       	st	Z, r24
 dba:	a9 81       	ldd	r26, Y+1	; 0x01
 dbc:	ba 81       	ldd	r27, Y+2	; 0x02
 dbe:	18 96       	adiw	r26, 0x08	; 8
 dc0:	2d 91       	ld	r18, X+
 dc2:	3c 91       	ld	r19, X
 dc4:	19 97       	sbiw	r26, 0x09	; 9
 dc6:	21 50       	subi	r18, 0x01	; 1
 dc8:	31 09       	sbc	r19, r1
 dca:	2c 19       	sub	r18, r12
 dcc:	3d 09       	sbc	r19, r13
 dce:	c2 0c       	add	r12, r2
 dd0:	d3 1c       	adc	r13, r3
 dd2:	a6 01       	movw	r20, r12
 dd4:	60 e8       	ldi	r22, 0x80	; 128
 dd6:	0d 81       	ldd	r16, Y+5	; 0x05
 dd8:	1e 81       	ldd	r17, Y+6	; 0x06
 dda:	8f 81       	ldd	r24, Y+7	; 0x07
 ddc:	98 85       	ldd	r25, Y+8	; 0x08
 dde:	0e 94 ee 09 	call	0x13dc	; 0x13dc <__pad>
 de2:	9c 01       	movw	r18, r24
 de4:	ef 81       	ldd	r30, Y+7	; 0x07
 de6:	f8 85       	ldd	r31, Y+8	; 0x08
 de8:	80 81       	ld	r24, Z
 dea:	91 81       	ldd	r25, Z+1	; 0x01
 dec:	90 ff       	sbrs	r25, 0
 dee:	09 c0       	rjmp	.+18     	; 0xe02 <__fmt_x+0x276>
 df0:	a9 81       	ldd	r26, Y+1	; 0x01
 df2:	ba 81       	ldd	r27, Y+2	; 0x02
 df4:	12 96       	adiw	r26, 0x02	; 2
 df6:	8d 91       	ld	r24, X+
 df8:	9c 91       	ld	r25, X
 dfa:	13 97       	sbiw	r26, 0x03	; 3
 dfc:	82 17       	cp	r24, r18
 dfe:	93 07       	cpc	r25, r19
 e00:	0c f4       	brge	.+2      	; 0xe04 <__fmt_x+0x278>
 e02:	c9 01       	movw	r24, r18
 e04:	64 96       	adiw	r28, 0x14	; 20
 e06:	e2 e1       	ldi	r30, 0x12	; 18
 e08:	0c 94 06 12 	jmp	0x240c	; 0x240c <__epilogue_restores__>

Disassembly of section .text.__pop_float:

00002322 <__pop_float>:
    2322:	fa 01       	movw	r30, r20
    2324:	60 38       	cpi	r22, 0x80	; 128
    2326:	71 05       	cpc	r23, r1
    2328:	cc f0       	brlt	.+50     	; 0x235c <__pop_float+0x3a>
    232a:	62 38       	cpi	r22, 0x82	; 130
    232c:	71 05       	cpc	r23, r1
    232e:	1c f0       	brlt	.+6      	; 0x2336 <__pop_float+0x14>
    2330:	63 38       	cpi	r22, 0x83	; 131
    2332:	71 05       	cpc	r23, r1
    2334:	99 f4       	brne	.+38     	; 0x235c <__pop_float+0x3a>
    2336:	a0 81       	ld	r26, Z
    2338:	b1 81       	ldd	r27, Z+1	; 0x01
    233a:	9d 01       	movw	r18, r26
    233c:	2c 5f       	subi	r18, 0xFC	; 252
    233e:	3f 4f       	sbci	r19, 0xFF	; 255
    2340:	31 83       	std	Z+1, r19	; 0x01
    2342:	20 83       	st	Z, r18
    2344:	4d 91       	ld	r20, X+
    2346:	5d 91       	ld	r21, X+
    2348:	6d 91       	ld	r22, X+
    234a:	7c 91       	ld	r23, X
    234c:	fc 01       	movw	r30, r24
    234e:	40 83       	st	Z, r20
    2350:	51 83       	std	Z+1, r21	; 0x01
    2352:	62 83       	std	Z+2, r22	; 0x02
    2354:	73 83       	std	Z+3, r23	; 0x03
    2356:	81 e0       	ldi	r24, 0x01	; 1
    2358:	90 e0       	ldi	r25, 0x00	; 0
    235a:	08 95       	ret
    235c:	80 e0       	ldi	r24, 0x00	; 0
    235e:	90 e0       	ldi	r25, 0x00	; 0
    2360:	08 95       	ret

Disassembly of section .text.__pop_int:

00001120 <__pop_int>:
    1120:	0f 93       	push	r16
    1122:	1f 93       	push	r17
    1124:	cf 93       	push	r28
    1126:	df 93       	push	r29
    1128:	fc 01       	movw	r30, r24
    112a:	d9 01       	movw	r26, r18
    112c:	68 38       	cpi	r22, 0x88	; 136
    112e:	71 05       	cpc	r23, r1
    1130:	31 f1       	breq	.+76     	; 0x117e <__pop_int+0x5e>
    1132:	94 f4       	brge	.+36     	; 0x1158 <__pop_int+0x38>
    1134:	61 38       	cpi	r22, 0x81	; 129
    1136:	71 05       	cpc	r23, r1
    1138:	b1 f1       	breq	.+108    	; 0x11a6 <__pop_int+0x86>
    113a:	2c f4       	brge	.+10     	; 0x1146 <__pop_int+0x26>
    113c:	60 38       	cpi	r22, 0x80	; 128
    113e:	71 05       	cpc	r23, r1
    1140:	09 f4       	brne	.+2      	; 0x1144 <__pop_int+0x24>
    1142:	78 c0       	rjmp	.+240    	; 0x1234 <__pop_int+0x114>
    1144:	9f c0       	rjmp	.+318    	; 0x1284 <__pop_int+0x164>
    1146:	62 38       	cpi	r22, 0x82	; 130
    1148:	71 05       	cpc	r23, r1
    114a:	09 f4       	brne	.+2      	; 0x114e <__pop_int+0x2e>
    114c:	59 c0       	rjmp	.+178    	; 0x1200 <__pop_int+0xe0>
    114e:	64 38       	cpi	r22, 0x84	; 132
    1150:	71 05       	cpc	r23, r1
    1152:	09 f4       	brne	.+2      	; 0x1156 <__pop_int+0x36>
    1154:	6f c0       	rjmp	.+222    	; 0x1234 <__pop_int+0x114>
    1156:	96 c0       	rjmp	.+300    	; 0x1284 <__pop_int+0x164>
    1158:	60 3a       	cpi	r22, 0xA0	; 160
    115a:	71 05       	cpc	r23, r1
    115c:	09 f4       	brne	.+2      	; 0x1160 <__pop_int+0x40>
    115e:	48 c0       	rjmp	.+144    	; 0x11f0 <__pop_int+0xd0>
    1160:	2c f4       	brge	.+10     	; 0x116c <__pop_int+0x4c>
    1162:	60 39       	cpi	r22, 0x90	; 144
    1164:	71 05       	cpc	r23, r1
    1166:	09 f4       	brne	.+2      	; 0x116a <__pop_int+0x4a>
    1168:	4b c0       	rjmp	.+150    	; 0x1200 <__pop_int+0xe0>
    116a:	8c c0       	rjmp	.+280    	; 0x1284 <__pop_int+0x164>
    116c:	60 3c       	cpi	r22, 0xC0	; 192
    116e:	71 05       	cpc	r23, r1
    1170:	09 f4       	brne	.+2      	; 0x1174 <__pop_int+0x54>
    1172:	76 c0       	rjmp	.+236    	; 0x1260 <__pop_int+0x140>
    1174:	60 3f       	cpi	r22, 0xF0	; 240
    1176:	71 05       	cpc	r23, r1
    1178:	09 f4       	brne	.+2      	; 0x117c <__pop_int+0x5c>
    117a:	72 c0       	rjmp	.+228    	; 0x1260 <__pop_int+0x140>
    117c:	83 c0       	rjmp	.+262    	; 0x1284 <__pop_int+0x164>
    117e:	cd 91       	ld	r28, X+
    1180:	dc 91       	ld	r29, X
    1182:	11 97       	sbiw	r26, 0x01	; 1
    1184:	ce 01       	movw	r24, r28
    1186:	02 96       	adiw	r24, 0x02	; 2
    1188:	8d 93       	st	X+, r24
    118a:	9c 93       	st	X, r25
    118c:	45 2b       	or	r20, r21
    118e:	39 f0       	breq	.+14     	; 0x119e <__pop_int+0x7e>
    1190:	98 81       	ld	r25, Y
    1192:	89 2f       	mov	r24, r25
    1194:	88 0f       	add	r24, r24
    1196:	88 0b       	sbc	r24, r24
    1198:	90 83       	st	Z, r25
    119a:	81 83       	std	Z+1, r24	; 0x01
    119c:	5b c0       	rjmp	.+182    	; 0x1254 <__pop_int+0x134>
    119e:	88 81       	ld	r24, Y
    11a0:	80 83       	st	Z, r24
    11a2:	11 82       	std	Z+1, r1	; 0x01
    11a4:	68 c0       	rjmp	.+208    	; 0x1276 <__pop_int+0x156>
    11a6:	cd 91       	ld	r28, X+
    11a8:	dc 91       	ld	r29, X
    11aa:	11 97       	sbiw	r26, 0x01	; 1
    11ac:	ce 01       	movw	r24, r28
    11ae:	04 96       	adiw	r24, 0x04	; 4
    11b0:	8d 93       	st	X+, r24
    11b2:	9c 93       	st	X, r25
    11b4:	45 2b       	or	r20, r21
    11b6:	99 f0       	breq	.+38     	; 0x11de <__pop_int+0xbe>
    11b8:	88 81       	ld	r24, Y
    11ba:	99 81       	ldd	r25, Y+1	; 0x01
    11bc:	aa 81       	ldd	r26, Y+2	; 0x02
    11be:	bb 81       	ldd	r27, Y+3	; 0x03
    11c0:	ac 01       	movw	r20, r24
    11c2:	bd 01       	movw	r22, r26
    11c4:	77 0f       	add	r23, r23
    11c6:	44 0b       	sbc	r20, r20
    11c8:	54 2f       	mov	r21, r20
    11ca:	ba 01       	movw	r22, r20
    11cc:	80 83       	st	Z, r24
    11ce:	91 83       	std	Z+1, r25	; 0x01
    11d0:	a2 83       	std	Z+2, r26	; 0x02
    11d2:	b3 83       	std	Z+3, r27	; 0x03
    11d4:	44 83       	std	Z+4, r20	; 0x04
    11d6:	45 83       	std	Z+5, r20	; 0x05
    11d8:	46 83       	std	Z+6, r20	; 0x06
    11da:	47 83       	std	Z+7, r20	; 0x07
    11dc:	28 c0       	rjmp	.+80     	; 0x122e <__pop_int+0x10e>
    11de:	08 81       	ld	r16, Y
    11e0:	19 81       	ldd	r17, Y+1	; 0x01
    11e2:	2a 81       	ldd	r18, Y+2	; 0x02
    11e4:	3b 81       	ldd	r19, Y+3	; 0x03
    11e6:	00 83       	st	Z, r16
    11e8:	11 83       	std	Z+1, r17	; 0x01
    11ea:	22 83       	std	Z+2, r18	; 0x02
    11ec:	33 83       	std	Z+3, r19	; 0x03
    11ee:	45 c0       	rjmp	.+138    	; 0x127a <__pop_int+0x15a>
    11f0:	cd 91       	ld	r28, X+
    11f2:	dc 91       	ld	r29, X
    11f4:	11 97       	sbiw	r26, 0x01	; 1
    11f6:	ce 01       	movw	r24, r28
    11f8:	02 96       	adiw	r24, 0x02	; 2
    11fa:	8d 93       	st	X+, r24
    11fc:	9c 93       	st	X, r25
    11fe:	23 c0       	rjmp	.+70     	; 0x1246 <__pop_int+0x126>
    1200:	cd 91       	ld	r28, X+
    1202:	dc 91       	ld	r29, X
    1204:	11 97       	sbiw	r26, 0x01	; 1
    1206:	ce 01       	movw	r24, r28
    1208:	08 96       	adiw	r24, 0x08	; 8
    120a:	8d 93       	st	X+, r24
    120c:	9c 93       	st	X, r25
    120e:	78 81       	ld	r23, Y
    1210:	69 81       	ldd	r22, Y+1	; 0x01
    1212:	5a 81       	ldd	r21, Y+2	; 0x02
    1214:	4b 81       	ldd	r20, Y+3	; 0x03
    1216:	3c 81       	ldd	r19, Y+4	; 0x04
    1218:	2d 81       	ldd	r18, Y+5	; 0x05
    121a:	9e 81       	ldd	r25, Y+6	; 0x06
    121c:	8f 81       	ldd	r24, Y+7	; 0x07
    121e:	70 83       	st	Z, r23
    1220:	61 83       	std	Z+1, r22	; 0x01
    1222:	52 83       	std	Z+2, r21	; 0x02
    1224:	43 83       	std	Z+3, r20	; 0x03
    1226:	34 83       	std	Z+4, r19	; 0x04
    1228:	25 83       	std	Z+5, r18	; 0x05
    122a:	96 83       	std	Z+6, r25	; 0x06
    122c:	87 83       	std	Z+7, r24	; 0x07
    122e:	81 e0       	ldi	r24, 0x01	; 1
    1230:	90 e0       	ldi	r25, 0x00	; 0
    1232:	2a c0       	rjmp	.+84     	; 0x1288 <__pop_int+0x168>
    1234:	cd 91       	ld	r28, X+
    1236:	dc 91       	ld	r29, X
    1238:	11 97       	sbiw	r26, 0x01	; 1
    123a:	ce 01       	movw	r24, r28
    123c:	02 96       	adiw	r24, 0x02	; 2
    123e:	8d 93       	st	X+, r24
    1240:	9c 93       	st	X, r25
    1242:	45 2b       	or	r20, r21
    1244:	a1 f0       	breq	.+40     	; 0x126e <__pop_int+0x14e>
    1246:	99 81       	ldd	r25, Y+1	; 0x01
    1248:	28 81       	ld	r18, Y
    124a:	89 2f       	mov	r24, r25
    124c:	88 0f       	add	r24, r24
    124e:	88 0b       	sbc	r24, r24
    1250:	20 83       	st	Z, r18
    1252:	91 83       	std	Z+1, r25	; 0x01
    1254:	82 83       	std	Z+2, r24	; 0x02
    1256:	83 83       	std	Z+3, r24	; 0x03
    1258:	84 83       	std	Z+4, r24	; 0x04
    125a:	85 83       	std	Z+5, r24	; 0x05
    125c:	86 83       	std	Z+6, r24	; 0x06
    125e:	e6 cf       	rjmp	.-52     	; 0x122c <__pop_int+0x10c>
    1260:	cd 91       	ld	r28, X+
    1262:	dc 91       	ld	r29, X
    1264:	11 97       	sbiw	r26, 0x01	; 1
    1266:	ce 01       	movw	r24, r28
    1268:	02 96       	adiw	r24, 0x02	; 2
    126a:	8d 93       	st	X+, r24
    126c:	9c 93       	st	X, r25
    126e:	08 81       	ld	r16, Y
    1270:	19 81       	ldd	r17, Y+1	; 0x01
    1272:	00 83       	st	Z, r16
    1274:	11 83       	std	Z+1, r17	; 0x01
    1276:	12 82       	std	Z+2, r1	; 0x02
    1278:	13 82       	std	Z+3, r1	; 0x03
    127a:	14 82       	std	Z+4, r1	; 0x04
    127c:	15 82       	std	Z+5, r1	; 0x05
    127e:	16 82       	std	Z+6, r1	; 0x06
    1280:	17 82       	std	Z+7, r1	; 0x07
    1282:	d5 cf       	rjmp	.-86     	; 0x122e <__pop_int+0x10e>
    1284:	80 e0       	ldi	r24, 0x00	; 0
    1286:	90 e0       	ldi	r25, 0x00	; 0
    1288:	df 91       	pop	r29
    128a:	cf 91       	pop	r28
    128c:	1f 91       	pop	r17
    128e:	0f 91       	pop	r16
    1290:	08 95       	ret

Disassembly of section .text.__pop_ptr:

000014ea <__pop_ptr>:
    14ea:	cf 93       	push	r28
    14ec:	df 93       	push	r29
    14ee:	dc 01       	movw	r26, r24
    14f0:	f9 01       	movw	r30, r18
    14f2:	64 38       	cpi	r22, 0x84	; 132
    14f4:	71 05       	cpc	r23, r1
    14f6:	d9 f1       	breq	.+118    	; 0x156e <__pop_ptr+0x84>
    14f8:	64 f4       	brge	.+24     	; 0x1512 <__pop_ptr+0x28>
    14fa:	61 38       	cpi	r22, 0x81	; 129
    14fc:	71 05       	cpc	r23, r1
    14fe:	21 f1       	breq	.+72     	; 0x1548 <__pop_ptr+0x5e>
    1500:	62 38       	cpi	r22, 0x82	; 130
    1502:	71 05       	cpc	r23, r1
    1504:	09 f4       	brne	.+2      	; 0x1508 <__pop_ptr+0x1e>
    1506:	40 c0       	rjmp	.+128    	; 0x1588 <__pop_ptr+0x9e>
    1508:	60 38       	cpi	r22, 0x80	; 128
    150a:	71 05       	cpc	r23, r1
    150c:	09 f0       	breq	.+2      	; 0x1510 <__pop_ptr+0x26>
    150e:	54 c0       	rjmp	.+168    	; 0x15b8 <__pop_ptr+0xce>
    1510:	2e c0       	rjmp	.+92     	; 0x156e <__pop_ptr+0x84>
    1512:	60 39       	cpi	r22, 0x90	; 144
    1514:	71 05       	cpc	r23, r1
    1516:	c1 f1       	breq	.+112    	; 0x1588 <__pop_ptr+0x9e>
    1518:	84 f4       	brge	.+32     	; 0x153a <__pop_ptr+0x50>
    151a:	68 38       	cpi	r22, 0x88	; 136
    151c:	71 05       	cpc	r23, r1
    151e:	09 f0       	breq	.+2      	; 0x1522 <__pop_ptr+0x38>
    1520:	4b c0       	rjmp	.+150    	; 0x15b8 <__pop_ptr+0xce>
    1522:	c0 81       	ld	r28, Z
    1524:	d1 81       	ldd	r29, Z+1	; 0x01
    1526:	ce 01       	movw	r24, r28
    1528:	02 96       	adiw	r24, 0x02	; 2
    152a:	91 83       	std	Z+1, r25	; 0x01
    152c:	80 83       	st	Z, r24
    152e:	e8 81       	ld	r30, Y
    1530:	f9 81       	ldd	r31, Y+1	; 0x01
    1532:	ed 93       	st	X+, r30
    1534:	fc 93       	st	X, r31
    1536:	40 83       	st	Z, r20
    1538:	3c c0       	rjmp	.+120    	; 0x15b2 <__pop_ptr+0xc8>
    153a:	60 3a       	cpi	r22, 0xA0	; 160
    153c:	71 05       	cpc	r23, r1
    153e:	b9 f0       	breq	.+46     	; 0x156e <__pop_ptr+0x84>
    1540:	60 3c       	cpi	r22, 0xC0	; 192
    1542:	71 05       	cpc	r23, r1
    1544:	a1 f0       	breq	.+40     	; 0x156e <__pop_ptr+0x84>
    1546:	38 c0       	rjmp	.+112    	; 0x15b8 <__pop_ptr+0xce>
    1548:	c0 81       	ld	r28, Z
    154a:	d1 81       	ldd	r29, Z+1	; 0x01
    154c:	ce 01       	movw	r24, r28
    154e:	02 96       	adiw	r24, 0x02	; 2
    1550:	91 83       	std	Z+1, r25	; 0x01
    1552:	80 83       	st	Z, r24
    1554:	e8 81       	ld	r30, Y
    1556:	f9 81       	ldd	r31, Y+1	; 0x01
    1558:	ed 93       	st	X+, r30
    155a:	fc 93       	st	X, r31
    155c:	05 2e       	mov	r0, r21
    155e:	00 0c       	add	r0, r0
    1560:	66 0b       	sbc	r22, r22
    1562:	77 0b       	sbc	r23, r23
    1564:	40 83       	st	Z, r20
    1566:	51 83       	std	Z+1, r21	; 0x01
    1568:	62 83       	std	Z+2, r22	; 0x02
    156a:	73 83       	std	Z+3, r23	; 0x03
    156c:	22 c0       	rjmp	.+68     	; 0x15b2 <__pop_ptr+0xc8>
    156e:	c0 81       	ld	r28, Z
    1570:	d1 81       	ldd	r29, Z+1	; 0x01
    1572:	ce 01       	movw	r24, r28
    1574:	02 96       	adiw	r24, 0x02	; 2
    1576:	91 83       	std	Z+1, r25	; 0x01
    1578:	80 83       	st	Z, r24
    157a:	e8 81       	ld	r30, Y
    157c:	f9 81       	ldd	r31, Y+1	; 0x01
    157e:	ed 93       	st	X+, r30
    1580:	fc 93       	st	X, r31
    1582:	51 83       	std	Z+1, r21	; 0x01
    1584:	40 83       	st	Z, r20
    1586:	15 c0       	rjmp	.+42     	; 0x15b2 <__pop_ptr+0xc8>
    1588:	c0 81       	ld	r28, Z
    158a:	d1 81       	ldd	r29, Z+1	; 0x01
    158c:	ce 01       	movw	r24, r28
    158e:	02 96       	adiw	r24, 0x02	; 2
    1590:	91 83       	std	Z+1, r25	; 0x01
    1592:	80 83       	st	Z, r24
    1594:	e8 81       	ld	r30, Y
    1596:	f9 81       	ldd	r31, Y+1	; 0x01
    1598:	ed 93       	st	X+, r30
    159a:	fc 93       	st	X, r31
    159c:	51 83       	std	Z+1, r21	; 0x01
    159e:	40 83       	st	Z, r20
    15a0:	85 2f       	mov	r24, r21
    15a2:	88 0f       	add	r24, r24
    15a4:	88 0b       	sbc	r24, r24
    15a6:	82 83       	std	Z+2, r24	; 0x02
    15a8:	83 83       	std	Z+3, r24	; 0x03
    15aa:	84 83       	std	Z+4, r24	; 0x04
    15ac:	85 83       	std	Z+5, r24	; 0x05
    15ae:	86 83       	std	Z+6, r24	; 0x06
    15b0:	87 83       	std	Z+7, r24	; 0x07
    15b2:	81 e0       	ldi	r24, 0x01	; 1
    15b4:	90 e0       	ldi	r25, 0x00	; 0
    15b6:	02 c0       	rjmp	.+4      	; 0x15bc <__pop_ptr+0xd2>
    15b8:	80 e0       	ldi	r24, 0x00	; 0
    15ba:	90 e0       	ldi	r25, 0x00	; 0
    15bc:	df 91       	pop	r29
    15be:	cf 91       	pop	r28
    15c0:	08 95       	ret

Disassembly of section .text.atoi:

00001c6a <atoi>:
    1c6a:	cf 93       	push	r28
    1c6c:	9b 01       	movw	r18, r22
    1c6e:	48 2f       	mov	r20, r24
    1c70:	f9 01       	movw	r30, r18
    1c72:	54 2f       	mov	r21, r20
    1c74:	0e 94 2c 13 	call	0x2658	; 0x2658 <__xload_1>
    1c78:	60 32       	cpi	r22, 0x20	; 32
    1c7a:	b9 f1       	breq	.+110    	; 0x1cea <atoi+0x80>
    1c7c:	86 2f       	mov	r24, r22
    1c7e:	06 2e       	mov	r0, r22
    1c80:	00 0c       	add	r0, r0
    1c82:	99 0b       	sbc	r25, r25
    1c84:	09 97       	sbiw	r24, 0x09	; 9
    1c86:	05 97       	sbiw	r24, 0x05	; 5
    1c88:	80 f1       	brcs	.+96     	; 0x1cea <atoi+0x80>
    1c8a:	6b 32       	cpi	r22, 0x2B	; 43
    1c8c:	49 f5       	brne	.+82     	; 0x1ce0 <atoi+0x76>
    1c8e:	a0 e0       	ldi	r26, 0x00	; 0
    1c90:	b0 e0       	ldi	r27, 0x00	; 0
    1c92:	2f 5f       	subi	r18, 0xFF	; 255
    1c94:	3f 4f       	sbci	r19, 0xFF	; 255
    1c96:	4f 4f       	sbci	r20, 0xFF	; 255
    1c98:	02 c0       	rjmp	.+4      	; 0x1c9e <atoi+0x34>
    1c9a:	a0 e0       	ldi	r26, 0x00	; 0
    1c9c:	b0 e0       	ldi	r27, 0x00	; 0
    1c9e:	80 e0       	ldi	r24, 0x00	; 0
    1ca0:	90 e0       	ldi	r25, 0x00	; 0
    1ca2:	ca e0       	ldi	r28, 0x0A	; 10
    1ca4:	f9 01       	movw	r30, r18
    1ca6:	54 2f       	mov	r21, r20
    1ca8:	0e 94 2c 13 	call	0x2658	; 0x2658 <__xload_1>
    1cac:	06 2e       	mov	r0, r22
    1cae:	00 0c       	add	r0, r0
    1cb0:	77 0b       	sbc	r23, r23
    1cb2:	60 53       	subi	r22, 0x30	; 48
    1cb4:	71 09       	sbc	r23, r1
    1cb6:	6a 30       	cpi	r22, 0x0A	; 10
    1cb8:	71 05       	cpc	r23, r1
    1cba:	60 f4       	brcc	.+24     	; 0x1cd4 <atoi+0x6a>
    1cbc:	c8 9f       	mul	r28, r24
    1cbe:	f0 01       	movw	r30, r0
    1cc0:	c9 9f       	mul	r28, r25
    1cc2:	f0 0d       	add	r31, r0
    1cc4:	11 24       	eor	r1, r1
    1cc6:	2f 5f       	subi	r18, 0xFF	; 255
    1cc8:	3f 4f       	sbci	r19, 0xFF	; 255
    1cca:	4f 4f       	sbci	r20, 0xFF	; 255
    1ccc:	cf 01       	movw	r24, r30
    1cce:	86 1b       	sub	r24, r22
    1cd0:	97 0b       	sbc	r25, r23
    1cd2:	e8 cf       	rjmp	.-48     	; 0x1ca4 <atoi+0x3a>
    1cd4:	ab 2b       	or	r26, r27
    1cd6:	69 f4       	brne	.+26     	; 0x1cf2 <atoi+0x88>
    1cd8:	91 95       	neg	r25
    1cda:	81 95       	neg	r24
    1cdc:	91 09       	sbc	r25, r1
    1cde:	09 c0       	rjmp	.+18     	; 0x1cf2 <atoi+0x88>
    1ce0:	6d 32       	cpi	r22, 0x2D	; 45
    1ce2:	d9 f6       	brne	.-74     	; 0x1c9a <atoi+0x30>
    1ce4:	a1 e0       	ldi	r26, 0x01	; 1
    1ce6:	b0 e0       	ldi	r27, 0x00	; 0
    1ce8:	d4 cf       	rjmp	.-88     	; 0x1c92 <atoi+0x28>
    1cea:	2f 5f       	subi	r18, 0xFF	; 255
    1cec:	3f 4f       	sbci	r19, 0xFF	; 255
    1cee:	4f 4f       	sbci	r20, 0xFF	; 255
    1cf0:	bf cf       	rjmp	.-130    	; 0x1c70 <atoi+0x6>
    1cf2:	cf 91       	pop	r28
    1cf4:	08 95       	ret

Disassembly of section .text.memset:

000025ec <memset>:
    25ec:	fc 01       	movw	r30, r24
    25ee:	48 0f       	add	r20, r24
    25f0:	59 1f       	adc	r21, r25
    25f2:	e4 17       	cp	r30, r20
    25f4:	f5 07       	cpc	r31, r21
    25f6:	11 f0       	breq	.+4      	; 0x25fc <memset+0x10>
    25f8:	61 93       	st	Z+, r22
    25fa:	fb cf       	rjmp	.-10     	; 0x25f2 <memset+0x6>
    25fc:	08 95       	ret

Disassembly of section .text.strcmp:

0000229c <strcmp>:
    229c:	cf 92       	push	r12
    229e:	df 92       	push	r13
    22a0:	ef 92       	push	r14
    22a2:	6b 01       	movw	r12, r22
    22a4:	e8 2e       	mov	r14, r24
    22a6:	f6 01       	movw	r30, r12
    22a8:	5e 2d       	mov	r21, r14
    22aa:	0e 94 2c 13 	call	0x2658	; 0x2658 <__xload_1>
    22ae:	86 2f       	mov	r24, r22
    22b0:	f9 01       	movw	r30, r18
    22b2:	54 2f       	mov	r21, r20
    22b4:	0e 94 2c 13 	call	0x2658	; 0x2658 <__xload_1>
    22b8:	86 13       	cpse	r24, r22
    22ba:	0b c0       	rjmp	.+22     	; 0x22d2 <strcmp+0x36>
    22bc:	88 23       	and	r24, r24
    22be:	41 f0       	breq	.+16     	; 0x22d0 <strcmp+0x34>
    22c0:	8f ef       	ldi	r24, 0xFF	; 255
    22c2:	c8 1a       	sub	r12, r24
    22c4:	d8 0a       	sbc	r13, r24
    22c6:	e8 0a       	sbc	r14, r24
    22c8:	2f 5f       	subi	r18, 0xFF	; 255
    22ca:	3f 4f       	sbci	r19, 0xFF	; 255
    22cc:	4f 4f       	sbci	r20, 0xFF	; 255
    22ce:	eb cf       	rjmp	.-42     	; 0x22a6 <strcmp+0xa>
    22d0:	68 2f       	mov	r22, r24
    22d2:	90 e0       	ldi	r25, 0x00	; 0
    22d4:	86 1b       	sub	r24, r22
    22d6:	91 09       	sbc	r25, r1
    22d8:	ef 90       	pop	r14
    22da:	df 90       	pop	r13
    22dc:	cf 90       	pop	r12
    22de:	08 95       	ret

Disassembly of section .text.strlen:

00002514 <strlen>:
    2514:	9b 01       	movw	r18, r22
    2516:	48 2f       	mov	r20, r24
    2518:	a8 2f       	mov	r26, r24
    251a:	cb 01       	movw	r24, r22
    251c:	fc 01       	movw	r30, r24
    251e:	5a 2f       	mov	r21, r26
    2520:	0e 94 2c 13 	call	0x2658	; 0x2658 <__xload_1>
    2524:	66 23       	and	r22, r22
    2526:	19 f0       	breq	.+6      	; 0x252e <strlen+0x1a>
    2528:	01 96       	adiw	r24, 0x01	; 1
    252a:	a1 1d       	adc	r26, r1
    252c:	f7 cf       	rjmp	.-18     	; 0x251c <strlen+0x8>
    252e:	64 2f       	mov	r22, r20
    2530:	a9 01       	movw	r20, r18
    2532:	84 1b       	sub	r24, r20
    2534:	95 0b       	sbc	r25, r21
    2536:	08 95       	ret

Disassembly of section .text.tolower:

00002610 <tolower>:
    2610:	9c 01       	movw	r18, r24
    2612:	21 54       	subi	r18, 0x41	; 65
    2614:	31 09       	sbc	r19, r1
    2616:	2a 31       	cpi	r18, 0x1A	; 26
    2618:	31 05       	cpc	r19, r1
    261a:	08 f4       	brcc	.+2      	; 0x261e <tolower+0xe>
    261c:	80 62       	ori	r24, 0x20	; 32
    261e:	08 95       	ret

Disassembly of section .text.toupper:

000025fe <toupper>:
    25fe:	9c 01       	movw	r18, r24
    2600:	21 56       	subi	r18, 0x61	; 97
    2602:	31 09       	sbc	r19, r1
    2604:	2a 31       	cpi	r18, 0x1A	; 26
    2606:	31 05       	cpc	r19, r1
    2608:	10 f4       	brcc	.+4      	; 0x260e <toupper+0x10>
    260a:	8f 75       	andi	r24, 0x5F	; 95
    260c:	99 27       	eor	r25, r25
    260e:	08 95       	ret

Disassembly of section .text._Exit:

00002670 <_Exit>:
    2670:	0e 94 b1 00 	call	0x162	; 0x162 <_exit>

Disassembly of section .text.__vsprintf:

00002590 <__vsprintf>:
    2590:	0f 93       	push	r16
    2592:	1f 93       	push	r17
    2594:	89 01       	movw	r16, r18
    2596:	9a 01       	movw	r18, r20
    2598:	46 2f       	mov	r20, r22
    259a:	6f ef       	ldi	r22, 0xFF	; 255
    259c:	7f e7       	ldi	r23, 0x7F	; 127
    259e:	0e 94 ad 0c 	call	0x195a	; 0x195a <__vsnprintf>
    25a2:	1f 91       	pop	r17
    25a4:	0f 91       	pop	r16
    25a6:	08 95       	ret

Disassembly of section .text.__vsnprintf:

0000195a <__vsnprintf>:
    195a:	6f 92       	push	r6
    195c:	7f 92       	push	r7
    195e:	8f 92       	push	r8
    1960:	ef 92       	push	r14
    1962:	ff 92       	push	r15
    1964:	0f 93       	push	r16
    1966:	1f 93       	push	r17
    1968:	cf 93       	push	r28
    196a:	df 93       	push	r29
    196c:	cd b7       	in	r28, 0x3d	; 61
    196e:	de b7       	in	r29, 0x3e	; 62
    1970:	61 97       	sbiw	r28, 0x11	; 17
    1972:	0f b6       	in	r0, 0x3f	; 63
    1974:	f8 94       	cli
    1976:	de bf       	out	0x3e, r29	; 62
    1978:	0f be       	out	0x3f, r0	; 63
    197a:	cd bf       	out	0x3d, r28	; 61
    197c:	fe 01       	movw	r30, r28
    197e:	31 96       	adiw	r30, 0x01	; 1
    1980:	51 e1       	ldi	r21, 0x11	; 17
    1982:	df 01       	movw	r26, r30
    1984:	1d 92       	st	X+, r1
    1986:	5a 95       	dec	r21
    1988:	e9 f7       	brne	.-6      	; 0x1984 <__vsnprintf+0x2a>
    198a:	a2 e0       	ldi	r26, 0x02	; 2
    198c:	b1 e0       	ldi	r27, 0x01	; 1
    198e:	ba 83       	std	Y+2, r27	; 0x02
    1990:	a9 83       	std	Y+1, r26	; 0x01
    1992:	9c 83       	std	Y+4, r25	; 0x04
    1994:	8b 83       	std	Y+3, r24	; 0x03
    1996:	77 ff       	sbrs	r23, 7
    1998:	09 c0       	rjmp	.+18     	; 0x19ac <__vsnprintf+0x52>
    199a:	8f e4       	ldi	r24, 0x4F	; 79
    199c:	90 e0       	ldi	r25, 0x00	; 0
    199e:	90 93 29 04 	sts	0x0429, r25	; 0x800429 <__errno_val+0x1>
    19a2:	80 93 28 04 	sts	0x0428, r24	; 0x800428 <__errno_val>
    19a6:	8f ef       	ldi	r24, 0xFF	; 255
    19a8:	9f ef       	ldi	r25, 0xFF	; 255
    19aa:	19 c0       	rjmp	.+50     	; 0x19de <__vsnprintf+0x84>
    19ac:	39 01       	movw	r6, r18
    19ae:	84 2e       	mov	r8, r20
    19b0:	7c 01       	movw	r14, r24
    19b2:	61 50       	subi	r22, 0x01	; 1
    19b4:	71 09       	sbc	r23, r1
    19b6:	7f 83       	std	Y+7, r23	; 0x07
    19b8:	6e 83       	std	Y+6, r22	; 0x06
    19ba:	98 01       	movw	r18, r16
    19bc:	68 2d       	mov	r22, r8
    19be:	a3 01       	movw	r20, r6
    19c0:	cf 01       	movw	r24, r30
    19c2:	0e 94 3a 12 	call	0x2474	; 0x2474 <__vfprintf>
    19c6:	48 85       	ldd	r20, Y+8	; 0x08
    19c8:	59 85       	ldd	r21, Y+9	; 0x09
    19ca:	2e 81       	ldd	r18, Y+6	; 0x06
    19cc:	3f 81       	ldd	r19, Y+7	; 0x07
    19ce:	42 17       	cp	r20, r18
    19d0:	53 07       	cpc	r21, r19
    19d2:	08 f4       	brcc	.+2      	; 0x19d6 <__vsnprintf+0x7c>
    19d4:	9a 01       	movw	r18, r20
    19d6:	f7 01       	movw	r30, r14
    19d8:	e2 0f       	add	r30, r18
    19da:	f3 1f       	adc	r31, r19
    19dc:	10 82       	st	Z, r1
    19de:	61 96       	adiw	r28, 0x11	; 17
    19e0:	0f b6       	in	r0, 0x3f	; 63
    19e2:	f8 94       	cli
    19e4:	de bf       	out	0x3e, r29	; 62
    19e6:	0f be       	out	0x3f, r0	; 63
    19e8:	cd bf       	out	0x3d, r28	; 61
    19ea:	df 91       	pop	r29
    19ec:	cf 91       	pop	r28
    19ee:	1f 91       	pop	r17
    19f0:	0f 91       	pop	r16
    19f2:	ff 90       	pop	r15
    19f4:	ef 90       	pop	r14
    19f6:	8f 90       	pop	r8
    19f8:	7f 90       	pop	r7
    19fa:	6f 90       	pop	r6
    19fc:	08 95       	ret

Disassembly of section .text.__vfprintf:

00002474 <__vfprintf>:
    2474:	a2 e0       	ldi	r26, 0x02	; 2
    2476:	b0 e0       	ldi	r27, 0x00	; 0
    2478:	e0 e4       	ldi	r30, 0x40	; 64
    247a:	f2 e1       	ldi	r31, 0x12	; 18
    247c:	0c 94 dd 11 	jmp	0x23ba	; 0x23ba <__prologue_saves__+0x1c>
    2480:	8c 01       	movw	r16, r24
    2482:	3a 83       	std	Y+2, r19	; 0x02
    2484:	29 83       	std	Y+1, r18	; 0x01
    2486:	9e 01       	movw	r18, r28
    2488:	2f 5f       	subi	r18, 0xFF	; 255
    248a:	3f 4f       	sbci	r19, 0xFF	; 255
    248c:	0e 94 ad 01 	call	0x35a	; 0x35a <__printf_core>
    2490:	f8 01       	movw	r30, r16
    2492:	20 81       	ld	r18, Z
    2494:	24 ff       	sbrs	r18, 4
    2496:	02 c0       	rjmp	.+4      	; 0x249c <__vfprintf+0x28>
    2498:	8f ef       	ldi	r24, 0xFF	; 255
    249a:	9f ef       	ldi	r25, 0xFF	; 255
    249c:	22 96       	adiw	r28, 0x02	; 2
    249e:	e4 e0       	ldi	r30, 0x04	; 4
    24a0:	0c 94 14 12 	jmp	0x2428	; 0x2428 <__epilogue_restores__+0x1c>

Disassembly of section .text.libgcc.div:

00002558 <__umoddi3>:
    2558:	68 94       	set
    255a:	01 c0       	rjmp	.+2      	; 0x255e <__udivdi3_umoddi3>

0000255c <__udivdi3>:
    255c:	e8 94       	clt

0000255e <__udivdi3_umoddi3>:
    255e:	8f 92       	push	r8
    2560:	9f 92       	push	r9
    2562:	cf 93       	push	r28
    2564:	df 93       	push	r29
    2566:	0e 94 ff 0c 	call	0x19fe	; 0x19fe <__udivmod64>
    256a:	df 91       	pop	r29
    256c:	cf 91       	pop	r28
    256e:	9f 90       	pop	r9
    2570:	8f 90       	pop	r8
    2572:	08 95       	ret

Disassembly of section .text.libgcc.div:

000019fe <__udivmod64>:
    19fe:	88 24       	eor	r8, r8
    1a00:	99 24       	eor	r9, r9
    1a02:	f4 01       	movw	r30, r8
    1a04:	e4 01       	movw	r28, r8
    1a06:	b0 e4       	ldi	r27, 0x40	; 64
    1a08:	9f 93       	push	r25
    1a0a:	aa 27       	eor	r26, r26
    1a0c:	9a 15       	cp	r25, r10
    1a0e:	8b 04       	cpc	r8, r11
    1a10:	9c 04       	cpc	r9, r12
    1a12:	ed 05       	cpc	r30, r13
    1a14:	fe 05       	cpc	r31, r14
    1a16:	cf 05       	cpc	r28, r15
    1a18:	d0 07       	cpc	r29, r16
    1a1a:	a1 07       	cpc	r26, r17
    1a1c:	98 f4       	brcc	.+38     	; 0x1a44 <__udivmod64+0x46>
    1a1e:	ad 2f       	mov	r26, r29
    1a20:	dc 2f       	mov	r29, r28
    1a22:	cf 2f       	mov	r28, r31
    1a24:	fe 2f       	mov	r31, r30
    1a26:	e9 2d       	mov	r30, r9
    1a28:	98 2c       	mov	r9, r8
    1a2a:	89 2e       	mov	r8, r25
    1a2c:	98 2f       	mov	r25, r24
    1a2e:	87 2f       	mov	r24, r23
    1a30:	76 2f       	mov	r23, r22
    1a32:	65 2f       	mov	r22, r21
    1a34:	54 2f       	mov	r21, r20
    1a36:	43 2f       	mov	r20, r19
    1a38:	32 2f       	mov	r19, r18
    1a3a:	22 27       	eor	r18, r18
    1a3c:	b8 50       	subi	r27, 0x08	; 8
    1a3e:	31 f7       	brne	.-52     	; 0x1a0c <__udivmod64+0xe>
    1a40:	bf 91       	pop	r27
    1a42:	27 c0       	rjmp	.+78     	; 0x1a92 <__udivmod64+0x94>
    1a44:	1b 2e       	mov	r1, r27
    1a46:	bf 91       	pop	r27
    1a48:	bb 27       	eor	r27, r27
    1a4a:	22 0f       	add	r18, r18
    1a4c:	33 1f       	adc	r19, r19
    1a4e:	44 1f       	adc	r20, r20
    1a50:	55 1f       	adc	r21, r21
    1a52:	66 1f       	adc	r22, r22
    1a54:	77 1f       	adc	r23, r23
    1a56:	88 1f       	adc	r24, r24
    1a58:	99 1f       	adc	r25, r25
    1a5a:	88 1c       	adc	r8, r8
    1a5c:	99 1c       	adc	r9, r9
    1a5e:	ee 1f       	adc	r30, r30
    1a60:	ff 1f       	adc	r31, r31
    1a62:	cc 1f       	adc	r28, r28
    1a64:	dd 1f       	adc	r29, r29
    1a66:	aa 1f       	adc	r26, r26
    1a68:	bb 1f       	adc	r27, r27
    1a6a:	8a 14       	cp	r8, r10
    1a6c:	9b 04       	cpc	r9, r11
    1a6e:	ec 05       	cpc	r30, r12
    1a70:	fd 05       	cpc	r31, r13
    1a72:	ce 05       	cpc	r28, r14
    1a74:	df 05       	cpc	r29, r15
    1a76:	a0 07       	cpc	r26, r16
    1a78:	b1 07       	cpc	r27, r17
    1a7a:	48 f0       	brcs	.+18     	; 0x1a8e <__udivmod64+0x90>
    1a7c:	8a 18       	sub	r8, r10
    1a7e:	9b 08       	sbc	r9, r11
    1a80:	ec 09       	sbc	r30, r12
    1a82:	fd 09       	sbc	r31, r13
    1a84:	ce 09       	sbc	r28, r14
    1a86:	df 09       	sbc	r29, r15
    1a88:	a0 0b       	sbc	r26, r16
    1a8a:	b1 0b       	sbc	r27, r17
    1a8c:	21 60       	ori	r18, 0x01	; 1
    1a8e:	1a 94       	dec	r1
    1a90:	e1 f6       	brne	.-72     	; 0x1a4a <__udivmod64+0x4c>
    1a92:	2e f4       	brtc	.+10     	; 0x1a9e <__udivmod64+0xa0>
    1a94:	94 01       	movw	r18, r8
    1a96:	af 01       	movw	r20, r30
    1a98:	be 01       	movw	r22, r28
    1a9a:	cd 01       	movw	r24, r26
    1a9c:	00 0c       	add	r0, r0
    1a9e:	08 95       	ret

Disassembly of section .text.libgcc:

00002538 <__negdi2>:
    2538:	60 95       	com	r22
    253a:	70 95       	com	r23
    253c:	80 95       	com	r24
    253e:	90 95       	com	r25
    2540:	30 95       	com	r19
    2542:	40 95       	com	r20
    2544:	50 95       	com	r21
    2546:	21 95       	neg	r18
    2548:	3f 4f       	sbci	r19, 0xFF	; 255
    254a:	4f 4f       	sbci	r20, 0xFF	; 255
    254c:	5f 4f       	sbci	r21, 0xFF	; 255
    254e:	6f 4f       	sbci	r22, 0xFF	; 255
    2550:	7f 4f       	sbci	r23, 0xFF	; 255
    2552:	8f 4f       	sbci	r24, 0xFF	; 255
    2554:	9f 4f       	sbci	r25, 0xFF	; 255
    2556:	08 95       	ret

Disassembly of section .text.libgcc.prologue:

0000239e <__prologue_saves__>:
    239e:	2f 92       	push	r2
    23a0:	3f 92       	push	r3
    23a2:	4f 92       	push	r4
    23a4:	5f 92       	push	r5
    23a6:	6f 92       	push	r6
    23a8:	7f 92       	push	r7
    23aa:	8f 92       	push	r8
    23ac:	9f 92       	push	r9
    23ae:	af 92       	push	r10
    23b0:	bf 92       	push	r11
    23b2:	cf 92       	push	r12
    23b4:	df 92       	push	r13
    23b6:	ef 92       	push	r14
    23b8:	ff 92       	push	r15
    23ba:	0f 93       	push	r16
    23bc:	1f 93       	push	r17
    23be:	cf 93       	push	r28
    23c0:	df 93       	push	r29
    23c2:	cd b7       	in	r28, 0x3d	; 61
    23c4:	de b7       	in	r29, 0x3e	; 62
    23c6:	ca 1b       	sub	r28, r26
    23c8:	db 0b       	sbc	r29, r27
    23ca:	0f b6       	in	r0, 0x3f	; 63
    23cc:	f8 94       	cli
    23ce:	de bf       	out	0x3e, r29	; 62
    23d0:	0f be       	out	0x3f, r0	; 63
    23d2:	cd bf       	out	0x3d, r28	; 61
    23d4:	19 94       	eijmp

Disassembly of section .text.libgcc.prologue:

0000240c <__epilogue_restores__>:
    240c:	2a 88       	ldd	r2, Y+18	; 0x12
    240e:	39 88       	ldd	r3, Y+17	; 0x11
    2410:	48 88       	ldd	r4, Y+16	; 0x10
    2412:	5f 84       	ldd	r5, Y+15	; 0x0f
    2414:	6e 84       	ldd	r6, Y+14	; 0x0e
    2416:	7d 84       	ldd	r7, Y+13	; 0x0d
    2418:	8c 84       	ldd	r8, Y+12	; 0x0c
    241a:	9b 84       	ldd	r9, Y+11	; 0x0b
    241c:	aa 84       	ldd	r10, Y+10	; 0x0a
    241e:	b9 84       	ldd	r11, Y+9	; 0x09
    2420:	c8 84       	ldd	r12, Y+8	; 0x08
    2422:	df 80       	ldd	r13, Y+7	; 0x07
    2424:	ee 80       	ldd	r14, Y+6	; 0x06
    2426:	fd 80       	ldd	r15, Y+5	; 0x05
    2428:	0c 81       	ldd	r16, Y+4	; 0x04
    242a:	1b 81       	ldd	r17, Y+3	; 0x03
    242c:	aa 81       	ldd	r26, Y+2	; 0x02
    242e:	b9 81       	ldd	r27, Y+1	; 0x01
    2430:	ce 0f       	add	r28, r30
    2432:	d1 1d       	adc	r29, r1
    2434:	0f b6       	in	r0, 0x3f	; 63
    2436:	f8 94       	cli
    2438:	de bf       	out	0x3e, r29	; 62
    243a:	0f be       	out	0x3f, r0	; 63
    243c:	cd bf       	out	0x3d, r28	; 61
    243e:	ed 01       	movw	r28, r26
    2440:	08 95       	ret

Disassembly of section .text.libgcc:

00002574 <__movmemx_qi>:
    2574:	99 27       	eor	r25, r25

00002576 <__movmemx_hi>:
    2576:	77 fd       	sbrc	r23, 7
    2578:	06 c0       	rjmp	.+12     	; 0x2586 <__movmemx_hi+0x10>
    257a:	7b bf       	out	0x3b, r23	; 59
    257c:	07 90       	elpm	r0, Z+
    257e:	0d 92       	st	X+, r0
    2580:	01 97       	sbiw	r24, 0x01	; 1
    2582:	e1 f7       	brne	.-8      	; 0x257c <__movmemx_hi+0x6>
    2584:	08 95       	ret
    2586:	01 90       	ld	r0, Z+
    2588:	0d 92       	st	X+, r0
    258a:	01 97       	sbiw	r24, 0x01	; 1
    258c:	e1 f7       	brne	.-8      	; 0x2586 <__movmemx_hi+0x10>
    258e:	08 95       	ret

Disassembly of section .text.libgcc.builtins:

00002362 <__ashrdi3>:
    2362:	97 fb       	bst	r25, 7
    2364:	10 f8       	bld	r1, 0

00002366 <__lshrdi3>:
    2366:	16 94       	lsr	r1
    2368:	00 08       	sbc	r0, r0
    236a:	0f 93       	push	r16
    236c:	08 30       	cpi	r16, 0x08	; 8
    236e:	98 f0       	brcs	.+38     	; 0x2396 <__lshrdi3+0x30>
    2370:	08 50       	subi	r16, 0x08	; 8
    2372:	23 2f       	mov	r18, r19
    2374:	34 2f       	mov	r19, r20
    2376:	45 2f       	mov	r20, r21
    2378:	56 2f       	mov	r21, r22
    237a:	67 2f       	mov	r22, r23
    237c:	78 2f       	mov	r23, r24
    237e:	89 2f       	mov	r24, r25
    2380:	90 2d       	mov	r25, r0
    2382:	f4 cf       	rjmp	.-24     	; 0x236c <__lshrdi3+0x6>
    2384:	05 94       	asr	r0
    2386:	97 95       	ror	r25
    2388:	87 95       	ror	r24
    238a:	77 95       	ror	r23
    238c:	67 95       	ror	r22
    238e:	57 95       	ror	r21
    2390:	47 95       	ror	r20
    2392:	37 95       	ror	r19
    2394:	27 95       	ror	r18
    2396:	0a 95       	dec	r16
    2398:	aa f7       	brpl	.-22     	; 0x2384 <__lshrdi3+0x1e>
    239a:	0f 91       	pop	r16
    239c:	08 95       	ret

Disassembly of section .text.libgcc:

000025a8 <__cmpdi2_s8>:
    25a8:	00 24       	eor	r0, r0
    25aa:	a7 fd       	sbrc	r26, 7
    25ac:	00 94       	com	r0
    25ae:	2a 17       	cp	r18, r26
    25b0:	30 05       	cpc	r19, r0
    25b2:	40 05       	cpc	r20, r0
    25b4:	50 05       	cpc	r21, r0
    25b6:	60 05       	cpc	r22, r0
    25b8:	70 05       	cpc	r23, r0
    25ba:	80 05       	cpc	r24, r0
    25bc:	90 05       	cpc	r25, r0
    25be:	08 95       	ret
